 node-simconnect

 Timestamp is 5aad775e (Sat Mar 17 21:15:26 2018)

 Preferred load address is 0000000180000000

 Start         Length     Name                   Class
 0001:00000000 000005f0H .text$di                CODE
 0001:000005f0 0000e200H .text$mn                CODE
 0001:0000e7f0 00000020H .text$mn$00             CODE
 0001:0000e810 000001c0H .text$x                 CODE
 0001:0000e9d0 0000016eH .text$yd                CODE
 0002:00000000 00000390H .idata$5                DATA
 0002:00000390 00000010H .00cfg                  DATA
 0002:000003a0 00000008H .CRT$XCA                DATA
 0002:000003a8 00000038H .CRT$XCU                DATA
 0002:000003e0 00000008H .CRT$XCZ                DATA
 0002:000003e8 00000008H .CRT$XIA                DATA
 0002:000003f0 00000008H .CRT$XIZ                DATA
 0002:000003f8 00000008H .CRT$XPA                DATA
 0002:00000400 00000008H .CRT$XPZ                DATA
 0002:00000408 00000008H .CRT$XTA                DATA
 0002:00000410 00000010H .CRT$XTZ                DATA
 0002:00000420 00001048H .rdata                  DATA
 0002:00001468 000001f4H .rdata$r                DATA
 0002:0000165c 000003bcH .rdata$zzzdbg           DATA
 0002:00001a18 00000008H .rtc$IAA                DATA
 0002:00001a20 00000008H .rtc$IZZ                DATA
 0002:00001a28 00000008H .rtc$TAA                DATA
 0002:00001a30 00000010H .rtc$TZZ                DATA
 0002:00001a40 00001028H .xdata                  DATA
 0002:00002a68 000000ecH .xdata$x                DATA
 0002:00002b54 00000020H .didat$2                DATA
 0002:00002b74 00000024H .didat$3                DATA
 0002:00002b98 00000168H .didat$4                DATA
 0002:00002d00 00000990H .didat$6                DATA
 0002:00003690 00000170H .didat$7                DATA
 0002:00003800 00000058H .edata                  DATA
 0002:00003858 00000118H .idata$2                DATA
 0002:00003970 00000018H .idata$3                DATA
 0002:00003988 00000390H .idata$4                DATA
 0002:00003d18 0000083aH .idata$6                DATA
 0003:00000000 00000080H .data                   DATA
 0003:00000080 000000a0H .data$r                 DATA
 0003:00000120 00000170H .didat$5                DATA
 0003:00000290 00000810H .bss                    DATA
 0004:00000000 00000e64H .pdata                  DATA
 0005:00000000 0000002cH .gfids$y                DATA
 0006:00000000 00000060H .rsrc$01                DATA
 0006:00000060 00000180H .rsrc$02                DATA

  Address         Publics by Value              Rva+Base               Lib:Object

 0000:00000000       __guard_iat_count          0000000000000000     <absolute>
 0000:00000000       __dynamic_value_reloc_table 0000000000000000     <absolute>
 0000:00000000       __guard_iat_table          0000000000000000     <absolute>
 0000:00000000       __guard_longjmp_table      0000000000000000     <absolute>
 0000:00000000       __guard_longjmp_count      0000000000000000     <absolute>
 0000:00000000       __guard_fids_count         0000000000000000     <absolute>
 0000:00000000       ___safe_se_handler_table   0000000000000000     <absolute>
 0000:00000000       ___safe_se_handler_count   0000000000000000     <absolute>
 0000:00000000       __guard_fids_table         0000000000000000     <absolute>
 0000:00000100       __guard_flags              0000000000000100     <absolute>
 0000:00000000       __ImageBase                0000000180000000     <linker-defined>
 0001:000005f0       __local_stdio_printf_options 00000001800015f0 f i addon.obj
 0001:00000600       printf                     0000000180001600 f i addon.obj
 0001:00000660       sprintf                    0000000180001660 f i addon.obj
 0001:000006c0       ?NODE_SET_METHOD@node@@YAXV?$Local@VObject@v8@@@v8@@PEBDP6AXAEBV?$FunctionCallbackInfo@VValue@v8@@@3@@Z@Z 00000001800016c0 f i addon.obj
 0001:000007a0       ?Call@Callback@Nan@@QEBA?AV?$Local@VValue@v8@@@v8@@HQEAV34@@Z 00000001800017a0 f i addon.obj
 0001:000008a0       ??0AsyncWorker@Nan@@QEAA@PEAVCallback@1@@Z 00000001800018a0 f i addon.obj
 0001:00000960       ??1AsyncWorker@Nan@@UEAA@XZ 0000000180001960 f i addon.obj
 0001:00000a10       ?WorkComplete@AsyncWorker@Nan@@UEAAXXZ 0000000180001a10 f i addon.obj
 0001:00000af0       ?Destroy@AsyncWorker@Nan@@UEAAXXZ 0000000180001af0 f i addon.obj
 0001:00000b10       ?HandleOKCallback@AsyncWorker@Nan@@MEAAXXZ 0000000180001b10 f i addon.obj
 0001:00000b60       ?HandleErrorCallback@AsyncWorker@Nan@@MEAAXXZ 0000000180001b60 f i addon.obj
 0001:00000cd0       ??_EAsyncWorker@Nan@@UEAAPEAXI@Z 0000000180001cd0 f i * CIL library *:* CIL module *
 0001:00000cd0       ??_GAsyncWorker@Nan@@UEAAPEAXI@Z 0000000180001cd0 f i addon.obj
 0001:00000d10       ?AsyncExecute@Nan@@YAXPEAUuv_work_s@@@Z 0000000180001d10 f i addon.obj
 0001:00000d20       ?AsyncExecuteComplete@Nan@@YAXPEAUuv_work_s@@@Z 0000000180001d20 f i addon.obj
 0001:00000d60       ?Execute@DispatchWorker@@UEAAXXZ 0000000180001d60 f i addon.obj
 0001:00000e30       ??_EDispatchWorker@@UEAAPEAXI@Z 0000000180001e30 f i * CIL library *:* CIL module *
 0001:00000e30       ??_GDispatchWorker@@UEAAPEAXI@Z 0000000180001e30 f i addon.obj
 0001:00000e70       ?messageReceiver@@YAXPEAUuv_async_s@@@Z 0000000180001e70 f   addon.obj
 0001:00000fa0       ?handleReceived_Data@@YAXPEAVIsolate@v8@@PEAUSIMCONNECT_RECV@@K@Z 0000000180001fa0 f   addon.obj
 0001:00001530       ?handle_Error@@YAXPEAVIsolate@v8@@J@Z 0000000180002530 f   addon.obj
 0001:00001660       ?handleReceived_Event@@YAXPEAVIsolate@v8@@PEAUSIMCONNECT_RECV@@K@Z 0000000180002660 f   addon.obj
 0001:00001820       ?handleReceived_Exception@@YAXPEAVIsolate@v8@@PEAUSIMCONNECT_RECV@@K@Z 0000000180002820 f   addon.obj
 0001:00001b80       ?handleReceived_Filename@@YAXPEAVIsolate@v8@@PEAUSIMCONNECT_RECV@@K@Z 0000000180002b80 f   addon.obj
 0001:00001d40       ?handleReceived_Open@@YAXPEAVIsolate@v8@@PEAUSIMCONNECT_RECV@@K@Z 0000000180002d40 f   addon.obj
 0001:00001f60       ?handleReceived_SystemState@@YAXPEAVIsolate@v8@@PEAUSIMCONNECT_RECV@@K@Z 0000000180002f60 f   addon.obj
 0001:000021d0       ?handleReceived_Quit@@YAXPEAVIsolate@v8@@@Z 00000001800031d0 f   addon.obj
 0001:00002340       ?Open@@YAXAEBV?$FunctionCallbackInfo@VValue@v8@@@v8@@@Z 0000000180003340 f   addon.obj
 0001:00002800       ?Close@@YAXAEBV?$FunctionCallbackInfo@VValue@v8@@@v8@@@Z 0000000180003800 f   addon.obj
 0001:000028d0       ?RequestSystemState@@YAXAEBV?$FunctionCallbackInfo@VValue@v8@@@v8@@@Z 00000001800038d0 f   addon.obj
 0001:00002ac0       ?TransmitClientEvent@@YAXAEBV?$FunctionCallbackInfo@VValue@v8@@@v8@@@Z 0000000180003ac0 f   addon.obj
 0001:00002bf0       ?SubscribeToSystemEvent@@YAXAEBV?$FunctionCallbackInfo@VValue@v8@@@v8@@@Z 0000000180003bf0 f   addon.obj
 0001:00002de0       ?RequestDataOnSimObject@@YAXAEBV?$FunctionCallbackInfo@VValue@v8@@@v8@@@Z 0000000180003de0 f   addon.obj
 0001:000030c0       ??1DataRequest@@QEAA@XZ    00000001800040c0 f i addon.obj
 0001:00003140       ?SetDataOnSimObject@@YAXAEBV?$FunctionCallbackInfo@VValue@v8@@@v8@@@Z 0000000180004140 f   addon.obj
 0001:00003310       ?generateDataRequest@@YA?AUDataRequest@@PEAVIsolate@v8@@PEAXV?$Local@VArray@v8@@@3@PEAVCallback@Nan@@@Z 0000000180004310 f   addon.obj
 0001:00003ba0       ?SetAircraftInitialPosition@@YAXAEBV?$FunctionCallbackInfo@VValue@v8@@@v8@@@Z 0000000180004ba0 f   addon.obj
 0001:000040b0       ?Initialize@@YAXV?$Local@VObject@v8@@@v8@@@Z 00000001800050b0 f   addon.obj
 0001:00004190       ??4?$vector@W4SIMCONNECT_DATATYPE@@V?$allocator@W4SIMCONNECT_DATATYPE@@@std@@@std@@QEAAAEAV01@AEBV01@@Z 0000000180005190 f i addon.obj
 0001:000042d0       ??0?$vector@W4SIMCONNECT_DATATYPE@@V?$allocator@W4SIMCONNECT_DATATYPE@@@std@@@std@@QEAA@AEBV01@@Z 00000001800052d0 f i addon.obj
 0001:00004390       ??4?$vector@V?$basic_string@DU?$char_traits@D@std@@V?$allocator@D@2@@std@@V?$allocator@V?$basic_string@DU?$char_traits@D@std@@V?$allocator@D@2@@std@@@2@@std@@QEAAAEAV01@AEBV01@@Z 0000000180005390 f i addon.obj
 0001:000044b0       ?deallocate@?$_Wrap_alloc@V?$allocator@W4SIMCONNECT_DATATYPE@@@std@@@std@@QEAAXPEAW4SIMCONNECT_DATATYPE@@_K@Z 00000001800054b0 f i addon.obj
 0001:00004530       ?_Buy@?$vector@W4SIMCONNECT_DATATYPE@@V?$allocator@W4SIMCONNECT_DATATYPE@@@std@@@std@@IEAA_N_K@Z 0000000180005530 f i addon.obj
 0001:00004590       ?deallocate@?$_Wrap_alloc@V?$allocator@V?$basic_string@DU?$char_traits@D@std@@V?$allocator@D@2@@std@@@std@@@std@@QEAAXPEAV?$basic_string@DU?$char_traits@D@std@@V?$allocator@D@2@@2@_K@Z 0000000180005590 f i addon.obj
 0001:00004600       ?_Buy@?$vector@V?$basic_string@DU?$char_traits@D@std@@V?$allocator@D@2@@std@@V?$allocator@V?$basic_string@DU?$char_traits@D@std@@V?$allocator@D@2@@std@@@2@@std@@IEAA_N_K@Z 0000000180005600 f i addon.obj
 0001:00004670       ?assign@?$basic_string@DU?$char_traits@D@std@@V?$allocator@D@2@@std@@QEAAAEAV12@PEBD_K@Z 0000000180005670 f i addon.obj
 0001:000047a0       ?assign@?$basic_string@DU?$char_traits@D@std@@V?$allocator@D@2@@std@@QEAAAEAV12@AEBV12@_K1@Z 00000001800057a0 f i addon.obj
 0001:000048d0       ?_Assign_rv@?$basic_string@DU?$char_traits@D@std@@V?$allocator@D@2@@std@@QEAAX$$QEAV12@@Z 00000001800058d0 f i addon.obj
 0001:00004960       ?erase@?$_Tree@V?$_Tmap_traits@HPEAVCallback@Nan@@U?$less@H@std@@V?$allocator@U?$pair@$$CBHPEAVCallback@Nan@@@std@@@4@$0A@@std@@@std@@QEAA?AV?$_Tree_iterator@V?$_Tree_val@U?$_Tree_simple_types@U?$pair@$$CBHPEAVCallback@Nan@@@std@@@std@@@std@@@2@V?$_Tree_const_iterator@V?$_Tree_val@U?$_Tree_simple_types@U?$pair@$$CBHPEAVCallback@Nan@@@std@@@std@@@std@@@2@0@Z 0000000180005960 f i addon.obj
 0001:00004a90       ?erase@?$_Tree@V?$_Tmap_traits@HUDataRequest@@U?$less@H@std@@V?$allocator@U?$pair@$$CBHUDataRequest@@@std@@@3@$0A@@std@@@std@@QEAA?AV?$_Tree_iterator@V?$_Tree_val@U?$_Tree_simple_types@U?$pair@$$CBHUDataRequest@@@std@@@std@@@std@@@2@V?$_Tree_const_iterator@V?$_Tree_val@U?$_Tree_simple_types@U?$pair@$$CBHUDataRequest@@@std@@@std@@@std@@@2@0@Z 0000000180005a90 f i addon.obj
 0001:00004ba0       ?erase@?$_Tree@V?$_Tmap_traits@W4SIMCONNECT_DATATYPE@@HU?$less@W4SIMCONNECT_DATATYPE@@@std@@V?$allocator@U?$pair@$$CBW4SIMCONNECT_DATATYPE@@H@std@@@3@$0A@@std@@@std@@QEAA?AV?$_Tree_iterator@V?$_Tree_val@U?$_Tree_simple_types@U?$pair@$$CBW4SIMCONNECT_DATATYPE@@H@std@@@std@@@std@@@2@V?$_Tree_const_iterator@V?$_Tree_val@U?$_Tree_simple_types@U?$pair@$$CBW4SIMCONNECT_DATATYPE@@H@std@@@std@@@std@@@2@0@Z 0000000180005ba0 f i addon.obj
 0001:00004c80       ?erase@?$_Tree@V?$_Tmap_traits@W4SIMCONNECT_EXCEPTION@@PEBDU?$less@W4SIMCONNECT_EXCEPTION@@@std@@V?$allocator@U?$pair@$$CBW4SIMCONNECT_EXCEPTION@@PEBD@std@@@3@$0A@@std@@@std@@QEAA?AV?$_Tree_iterator@V?$_Tree_val@U?$_Tree_simple_types@U?$pair@$$CBW4SIMCONNECT_EXCEPTION@@PEBD@std@@@std@@@std@@@2@V?$_Tree_const_iterator@V?$_Tree_val@U?$_Tree_simple_types@U?$pair@$$CBW4SIMCONNECT_EXCEPTION@@PEBD@std@@@std@@@std@@@2@0@Z 0000000180005c80 f i addon.obj
 0001:00004d60       ?allocate@?$_Wrap_alloc@V?$allocator@W4SIMCONNECT_DATATYPE@@@std@@@std@@QEAAPEAW4SIMCONNECT_DATATYPE@@_K@Z 0000000180005d60 f i addon.obj
 0001:00004de0       ?_Reallocate@?$vector@W4SIMCONNECT_DATATYPE@@V?$allocator@W4SIMCONNECT_DATATYPE@@@std@@@std@@IEAAX_K@Z 0000000180005de0 f i addon.obj
 0001:00004ec0       ?allocate@?$_Wrap_alloc@V?$allocator@V?$basic_string@DU?$char_traits@D@std@@V?$allocator@D@2@@std@@@std@@@std@@QEAAPEAV?$basic_string@DU?$char_traits@D@std@@V?$allocator@D@2@@2@_K@Z 0000000180005ec0 f i addon.obj
 0001:00004f30       ?_Reallocate@?$vector@V?$basic_string@DU?$char_traits@D@std@@V?$allocator@D@2@@std@@V?$allocator@V?$basic_string@DU?$char_traits@D@std@@V?$allocator@D@2@@std@@@2@@std@@IEAAX_K@Z 0000000180005f30 f i addon.obj
 0001:00005050       ?erase@?$basic_string@DU?$char_traits@D@std@@V?$allocator@D@2@@std@@QEAAAEAV12@_K0@Z 0000000180006050 f i addon.obj
 0001:000050f0       ?erase@?$_Tree@V?$_Tmap_traits@HPEAVCallback@Nan@@U?$less@H@std@@V?$allocator@U?$pair@$$CBHPEAVCallback@Nan@@@std@@@4@$0A@@std@@@std@@QEAA?AV?$_Tree_iterator@V?$_Tree_val@U?$_Tree_simple_types@U?$pair@$$CBHPEAVCallback@Nan@@@std@@@std@@@std@@@2@V?$_Tree_const_iterator@V?$_Tree_val@U?$_Tree_simple_types@U?$pair@$$CBHPEAVCallback@Nan@@@std@@@std@@@std@@@2@@Z 00000001800060f0 f i addon.obj
 0001:00005560       ?erase@?$_Tree@V?$_Tmap_traits@HUDataRequest@@U?$less@H@std@@V?$allocator@U?$pair@$$CBHUDataRequest@@@std@@@3@$0A@@std@@@std@@QEAA?AV?$_Tree_iterator@V?$_Tree_val@U?$_Tree_simple_types@U?$pair@$$CBHUDataRequest@@@std@@@std@@@std@@@2@V?$_Tree_const_iterator@V?$_Tree_val@U?$_Tree_simple_types@U?$pair@$$CBHUDataRequest@@@std@@@std@@@std@@@2@@Z 0000000180006560 f i addon.obj
 0001:00005a20       ?clear@?$_Tree@V?$_Tmap_traits@W4SIMCONNECT_DATATYPE@@HU?$less@W4SIMCONNECT_DATATYPE@@@std@@V?$allocator@U?$pair@$$CBW4SIMCONNECT_DATATYPE@@H@std@@@3@$0A@@std@@@std@@QEAAXXZ 0000000180006a20 f i addon.obj
 0001:00005aa0       ?erase@?$_Tree@V?$_Tmap_traits@W4SIMCONNECT_DATATYPE@@HU?$less@W4SIMCONNECT_DATATYPE@@@std@@V?$allocator@U?$pair@$$CBW4SIMCONNECT_DATATYPE@@H@std@@@3@$0A@@std@@@std@@QEAA?AV?$_Tree_iterator@V?$_Tree_val@U?$_Tree_simple_types@U?$pair@$$CBW4SIMCONNECT_DATATYPE@@H@std@@@std@@@std@@@2@V?$_Tree_const_iterator@V?$_Tree_val@U?$_Tree_simple_types@U?$pair@$$CBW4SIMCONNECT_DATATYPE@@H@std@@@std@@@std@@@2@@Z 0000000180006aa0 f i addon.obj
 0001:00005e40       ?clear@?$_Tree@V?$_Tmap_traits@W4SIMCONNECT_EXCEPTION@@PEBDU?$less@W4SIMCONNECT_EXCEPTION@@@std@@V?$allocator@U?$pair@$$CBW4SIMCONNECT_EXCEPTION@@PEBD@std@@@3@$0A@@std@@@std@@QEAAXXZ 0000000180006e40 f i addon.obj
 0001:00005ec0       ?erase@?$_Tree@V?$_Tmap_traits@W4SIMCONNECT_EXCEPTION@@PEBDU?$less@W4SIMCONNECT_EXCEPTION@@@std@@V?$allocator@U?$pair@$$CBW4SIMCONNECT_EXCEPTION@@PEBD@std@@@3@$0A@@std@@@std@@QEAA?AV?$_Tree_iterator@V?$_Tree_val@U?$_Tree_simple_types@U?$pair@$$CBW4SIMCONNECT_EXCEPTION@@PEBD@std@@@std@@@std@@@2@V?$_Tree_const_iterator@V?$_Tree_val@U?$_Tree_simple_types@U?$pair@$$CBW4SIMCONNECT_EXCEPTION@@PEBD@std@@@std@@@std@@@2@@Z 0000000180006ec0 f i addon.obj
 0001:00006260       ?_Copy@?$basic_string@DU?$char_traits@D@std@@V?$allocator@D@2@@std@@QEAAX_K0@Z 0000000180007260 f i addon.obj
 0001:000063e0       ?_Rrotate@?$_Tree@V?$_Tmap_traits@HPEAVCallback@Nan@@U?$less@H@std@@V?$allocator@U?$pair@$$CBHPEAVCallback@Nan@@@std@@@4@$0A@@std@@@std@@IEAAXPEAU?$_Tree_node@U?$pair@$$CBHPEAVCallback@Nan@@@std@@PEAX@2@@Z 00000001800073e0 f i addon.obj
 0001:00006440       ?_Lrotate@?$_Tree@V?$_Tmap_traits@HPEAVCallback@Nan@@U?$less@H@std@@V?$allocator@U?$pair@$$CBHPEAVCallback@Nan@@@std@@@4@$0A@@std@@@std@@IEAAXPEAU?$_Tree_node@U?$pair@$$CBHPEAVCallback@Nan@@@std@@PEAX@2@@Z 0000000180007440 f i addon.obj
 0001:000064a0       ?_Erase@?$_Tree@V?$_Tmap_traits@W4SIMCONNECT_EXCEPTION@@PEBDU?$less@W4SIMCONNECT_EXCEPTION@@@std@@V?$allocator@U?$pair@$$CBW4SIMCONNECT_EXCEPTION@@PEBD@std@@@3@$0A@@std@@@std@@IEAAXPEAU?$_Tree_node@U?$pair@$$CBW4SIMCONNECT_EXCEPTION@@PEBD@std@@PEAX@2@@Z 00000001800074a0 f i addon.obj
 0001:000064a0       ?_Erase@?$_Tree@V?$_Tmap_traits@W4SIMCONNECT_DATATYPE@@HU?$less@W4SIMCONNECT_DATATYPE@@@std@@V?$allocator@U?$pair@$$CBW4SIMCONNECT_DATATYPE@@H@std@@@3@$0A@@std@@@std@@IEAAXPEAU?$_Tree_node@U?$pair@$$CBW4SIMCONNECT_DATATYPE@@H@std@@PEAX@2@@Z 00000001800074a0 f i addon.obj
 0001:000064a0       ?_Erase@?$_Tree@V?$_Tmap_traits@HPEAVCallback@Nan@@U?$less@H@std@@V?$allocator@U?$pair@$$CBHPEAVCallback@Nan@@@std@@@4@$0A@@std@@@std@@IEAAXPEAU?$_Tree_node@U?$pair@$$CBHPEAVCallback@Nan@@@std@@PEAX@2@@Z 00000001800074a0 f i addon.obj
 0001:000064f0       ?_Rrotate@?$_Tree@V?$_Tmap_traits@HUDataRequest@@U?$less@H@std@@V?$allocator@U?$pair@$$CBHUDataRequest@@@std@@@3@$0A@@std@@@std@@IEAAXPEAU?$_Tree_node@U?$pair@$$CBHUDataRequest@@@std@@PEAX@2@@Z 00000001800074f0 f i addon.obj
 0001:00006550       ?_Lrotate@?$_Tree@V?$_Tmap_traits@HUDataRequest@@U?$less@H@std@@V?$allocator@U?$pair@$$CBHUDataRequest@@@std@@@3@$0A@@std@@@std@@IEAAXPEAU?$_Tree_node@U?$pair@$$CBHUDataRequest@@@std@@PEAX@2@@Z 0000000180007550 f i addon.obj
 0001:000065b0       ?_Erase@?$_Tree@V?$_Tmap_traits@HUDataRequest@@U?$less@H@std@@V?$allocator@U?$pair@$$CBHUDataRequest@@@std@@@3@$0A@@std@@@std@@IEAAXPEAU?$_Tree_node@U?$pair@$$CBHUDataRequest@@@std@@PEAX@2@@Z 00000001800075b0 f i addon.obj
 0001:00006750       ?_Rrotate@?$_Tree@V?$_Tmap_traits@W4SIMCONNECT_DATATYPE@@HU?$less@W4SIMCONNECT_DATATYPE@@@std@@V?$allocator@U?$pair@$$CBW4SIMCONNECT_DATATYPE@@H@std@@@3@$0A@@std@@@std@@IEAAXPEAU?$_Tree_node@U?$pair@$$CBW4SIMCONNECT_DATATYPE@@H@std@@PEAX@2@@Z 0000000180007750 f i addon.obj
 0001:000067b0       ?_Lrotate@?$_Tree@V?$_Tmap_traits@W4SIMCONNECT_DATATYPE@@HU?$less@W4SIMCONNECT_DATATYPE@@@std@@V?$allocator@U?$pair@$$CBW4SIMCONNECT_DATATYPE@@H@std@@@3@$0A@@std@@@std@@IEAAXPEAU?$_Tree_node@U?$pair@$$CBW4SIMCONNECT_DATATYPE@@H@std@@PEAX@2@@Z 00000001800077b0 f i addon.obj
 0001:00006810       ?_Rrotate@?$_Tree@V?$_Tmap_traits@W4SIMCONNECT_EXCEPTION@@PEBDU?$less@W4SIMCONNECT_EXCEPTION@@@std@@V?$allocator@U?$pair@$$CBW4SIMCONNECT_EXCEPTION@@PEBD@std@@@3@$0A@@std@@@std@@IEAAXPEAU?$_Tree_node@U?$pair@$$CBW4SIMCONNECT_EXCEPTION@@PEBD@std@@PEAX@2@@Z 0000000180007810 f i addon.obj
 0001:00006870       ?_Lrotate@?$_Tree@V?$_Tmap_traits@W4SIMCONNECT_EXCEPTION@@PEBDU?$less@W4SIMCONNECT_EXCEPTION@@@std@@V?$allocator@U?$pair@$$CBW4SIMCONNECT_EXCEPTION@@PEBD@std@@@3@$0A@@std@@@std@@IEAAXPEAU?$_Tree_node@U?$pair@$$CBW4SIMCONNECT_EXCEPTION@@PEBD@std@@PEAX@2@@Z 0000000180007870 f i addon.obj
 0001:000068d0       ??$_Copy_unchecked@PEAV?$basic_string@DU?$char_traits@D@std@@V?$allocator@D@2@@std@@PEAV12@@std@@YAPEAV?$basic_string@DU?$char_traits@D@std@@V?$allocator@D@2@@0@PEAV10@00@Z 00000001800078d0 f i addon.obj
 0001:00006930       ??$insert@PEBU?$pair@$$CBW4SIMCONNECT_DATATYPE@@H@std@@@?$_Tree@V?$_Tmap_traits@W4SIMCONNECT_DATATYPE@@HU?$less@W4SIMCONNECT_DATATYPE@@@std@@V?$allocator@U?$pair@$$CBW4SIMCONNECT_DATATYPE@@H@std@@@3@$0A@@std@@@std@@QEAAXPEBU?$pair@$$CBW4SIMCONNECT_DATATYPE@@H@1@0@Z 0000000180007930 f i addon.obj
 0001:000069e0       ??$insert@PEBU?$pair@$$CBW4SIMCONNECT_EXCEPTION@@PEBD@std@@@?$_Tree@V?$_Tmap_traits@W4SIMCONNECT_EXCEPTION@@PEBDU?$less@W4SIMCONNECT_EXCEPTION@@@std@@V?$allocator@U?$pair@$$CBW4SIMCONNECT_EXCEPTION@@PEBD@std@@@3@$0A@@std@@@std@@QEAAXPEBU?$pair@$$CBW4SIMCONNECT_EXCEPTION@@PEBD@1@0@Z 00000001800079e0 f i addon.obj
 0001:00006a90       ?ShiftState@ClientClient@@UEAAXXZ 0000000180007a90 f i SimConnect:commClient.obj
 0001:00006a90       ?ShiftState@CClient@@EEAAXXZ 0000000180007a90 f i SimConnect:client.obj
 0001:00006a90       ??$destroy@PEAU?$_Tree_node@U?$pair@$$CBW4SIMCONNECT_DATATYPE@@H@std@@PEAX@std@@@?$_Wrap_alloc@V?$allocator@U?$_Tree_node@U?$pair@$$CBW4SIMCONNECT_DATATYPE@@H@std@@PEAX@std@@@std@@@std@@QEAAXPEAPEAU?$_Tree_node@U?$pair@$$CBW4SIMCONNECT_DATATYPE@@H@std@@PEAX@1@@Z 0000000180007a90 f i addon.obj
 0001:00006a90       ??$destroy@PEAU?$_Tree_node@U?$pair@$$CBHUDataRequest@@@std@@PEAX@std@@@?$_Wrap_alloc@V?$allocator@U?$_Tree_node@U?$pair@$$CBHUDataRequest@@@std@@PEAX@std@@@std@@@std@@QEAAXPEAPEAU?$_Tree_node@U?$pair@$$CBHUDataRequest@@@std@@PEAX@1@@Z 0000000180007a90 f i addon.obj
 0001:00006a90       ??$destroy@PEAU?$_Tree_node@U?$pair@$$CBW4SIMCONNECT_EXCEPTION@@PEBD@std@@PEAX@std@@@?$_Wrap_alloc@V?$allocator@U?$_Tree_node@U?$pair@$$CBW4SIMCONNECT_EXCEPTION@@PEBD@std@@PEAX@std@@@std@@@std@@QEAAXPEAPEAU?$_Tree_node@U?$pair@$$CBW4SIMCONNECT_EXCEPTION@@PEBD@std@@PEAX@1@@Z 0000000180007a90 f i addon.obj
 0001:00006a90       _guard_check_icall_nop     0000000180007a90 f i MSVCRT:guard_support.obj
 0001:00006a90       ??$destroy@PEAU?$_Tree_node@U?$pair@$$CBHPEAVCallback@Nan@@@std@@PEAX@std@@@?$_Wrap_alloc@V?$allocator@U?$_Tree_node@U?$pair@$$CBHPEAVCallback@Nan@@@std@@PEAX@std@@@std@@@std@@QEAAXPEAPEAU?$_Tree_node@U?$pair@$$CBHPEAVCallback@Nan@@@std@@PEAX@1@@Z 0000000180007a90 f i addon.obj
 0001:00006aa0       ??$_Try_emplace@AEBH$$V@?$map@HUDataRequest@@U?$less@H@std@@V?$allocator@U?$pair@$$CBHUDataRequest@@@std@@@3@@std@@QEAA?AU?$pair@V?$_Tree_iterator@V?$_Tree_val@U?$_Tree_simple_types@U?$pair@$$CBHUDataRequest@@@std@@@std@@@std@@@std@@_N@1@AEBH@Z 0000000180007aa0 f i addon.obj
 0001:00006bc0       ??$_Try_emplace@AEBW4SIMCONNECT_DATATYPE@@$$V@?$map@W4SIMCONNECT_DATATYPE@@HU?$less@W4SIMCONNECT_DATATYPE@@@std@@V?$allocator@U?$pair@$$CBW4SIMCONNECT_DATATYPE@@H@std@@@3@@std@@QEAA?AU?$pair@V?$_Tree_iterator@V?$_Tree_val@U?$_Tree_simple_types@U?$pair@$$CBW4SIMCONNECT_DATATYPE@@H@std@@@std@@@std@@@std@@_N@1@AEBW4SIMCONNECT_DATATYPE@@@Z 0000000180007bc0 f i addon.obj
 0001:00006cc0       ??$_Try_emplace@W4SIMCONNECT_EXCEPTION@@$$V@?$map@W4SIMCONNECT_EXCEPTION@@PEBDU?$less@W4SIMCONNECT_EXCEPTION@@@std@@V?$allocator@U?$pair@$$CBW4SIMCONNECT_EXCEPTION@@PEBD@std@@@3@@std@@QEAA?AU?$pair@V?$_Tree_iterator@V?$_Tree_val@U?$_Tree_simple_types@U?$pair@$$CBW4SIMCONNECT_EXCEPTION@@PEBD@std@@@std@@@std@@@std@@_N@1@$$QEAW4SIMCONNECT_EXCEPTION@@@Z 0000000180007cc0 f i addon.obj
 0001:00006dc0       ??$_Destroy_range1@V?$allocator@V?$basic_string@DU?$char_traits@D@std@@V?$allocator@D@2@@std@@@std@@PEAV?$basic_string@DU?$char_traits@D@std@@V?$allocator@D@2@@2@@std@@YAXPEAV?$basic_string@DU?$char_traits@D@std@@V?$allocator@D@2@@0@0AEAU?$_Wrap_alloc@V?$allocator@V?$basic_string@DU?$char_traits@D@std@@V?$allocator@D@2@@std@@@std@@@0@U?$integral_constant@_N$0A@@0@@Z 0000000180007dc0 f i addon.obj
 0001:00006e80       ??0?$_Wrap_alloc@V?$allocator@U?$_Tree_node@U?$pair@$$CBHPEAVCallback@Nan@@@std@@PEAX@std@@@std@@@std@@QEAA@XZ 0000000180007e80 f i addon.obj
 0001:00006e90       ??0?$_Wrap_alloc@V?$allocator@U?$_Tree_node@U?$pair@$$CBHUDataRequest@@@std@@PEAX@std@@@std@@@std@@QEAA@XZ 0000000180007e90 f i addon.obj
 0001:00006ea0       ??0?$_Wrap_alloc@V?$allocator@U?$_Tree_node@U?$pair@$$CBW4SIMCONNECT_DATATYPE@@H@std@@PEAX@std@@@std@@@std@@QEAA@XZ 0000000180007ea0 f i addon.obj
 0001:00006eb0       ??0?$_Wrap_alloc@V?$allocator@U?$_Tree_node@U?$pair@$$CBW4SIMCONNECT_EXCEPTION@@PEBD@std@@PEAX@std@@@std@@@std@@QEAA@XZ 0000000180007eb0 f i addon.obj
 0001:00006ec0       ??$_Uninitialized_copy_al_unchecked@PEAV?$basic_string@DU?$char_traits@D@std@@V?$allocator@D@2@@std@@PEAV12@V?$allocator@V?$basic_string@DU?$char_traits@D@std@@V?$allocator@D@2@@std@@@2@@std@@YAPEAV?$basic_string@DU?$char_traits@D@std@@V?$allocator@D@2@@0@PEAV10@00AEAU?$_Wrap_alloc@V?$allocator@V?$basic_string@DU?$char_traits@D@std@@V?$allocator@D@2@@std@@@std@@@0@@Z 0000000180007ec0 f i addon.obj
 0001:00006ec0       ??$_Uninitialized_copy_al_unchecked@PEBV?$basic_string@DU?$char_traits@D@std@@V?$allocator@D@2@@std@@PEAV12@V?$allocator@V?$basic_string@DU?$char_traits@D@std@@V?$allocator@D@2@@std@@@2@@std@@YAPEAV?$basic_string@DU?$char_traits@D@std@@V?$allocator@D@2@@0@PEBV10@0PEAV10@AEAU?$_Wrap_alloc@V?$allocator@V?$basic_string@DU?$char_traits@D@std@@V?$allocator@D@2@@std@@@std@@@0@@Z 0000000180007ec0 f i addon.obj
 0001:00006f50       ??$_Insert_hint@AEAU?$pair@$$CBW4SIMCONNECT_DATATYPE@@H@std@@PEAU?$_Tree_node@U?$pair@$$CBW4SIMCONNECT_DATATYPE@@H@std@@PEAX@2@@?$_Tree@V?$_Tmap_traits@W4SIMCONNECT_DATATYPE@@HU?$less@W4SIMCONNECT_DATATYPE@@@std@@V?$allocator@U?$pair@$$CBW4SIMCONNECT_DATATYPE@@H@std@@@3@$0A@@std@@@std@@IEAA?AV?$_Tree_iterator@V?$_Tree_val@U?$_Tree_simple_types@U?$pair@$$CBW4SIMCONNECT_DATATYPE@@H@std@@@std@@@std@@@1@V?$_Tree_const_iterator@V?$_Tree_val@U?$_Tree_simple_types@U?$pair@$$CBW4SIMCONNECT_DATATYPE@@H@std@@@std@@@std@@@1@AEAU?$pair@$$CBW4SIMCONNECT_DATATYPE@@H@1@PEAU?$_Tree_node@U?$pair@$$CBW4SIMCONNECT_DATATYPE@@H@std@@PEAX@1@@Z 0000000180007f50 f i addon.obj
 0001:00007180       ??$_Insert_hint@AEAU?$pair@$$CBW4SIMCONNECT_EXCEPTION@@PEBD@std@@PEAU?$_Tree_node@U?$pair@$$CBW4SIMCONNECT_EXCEPTION@@PEBD@std@@PEAX@2@@?$_Tree@V?$_Tmap_traits@W4SIMCONNECT_EXCEPTION@@PEBDU?$less@W4SIMCONNECT_EXCEPTION@@@std@@V?$allocator@U?$pair@$$CBW4SIMCONNECT_EXCEPTION@@PEBD@std@@@3@$0A@@std@@@std@@IEAA?AV?$_Tree_iterator@V?$_Tree_val@U?$_Tree_simple_types@U?$pair@$$CBW4SIMCONNECT_EXCEPTION@@PEBD@std@@@std@@@std@@@1@V?$_Tree_const_iterator@V?$_Tree_val@U?$_Tree_simple_types@U?$pair@$$CBW4SIMCONNECT_EXCEPTION@@PEBD@std@@@std@@@std@@@1@AEAU?$pair@$$CBW4SIMCONNECT_EXCEPTION@@PEBD@1@PEAU?$_Tree_node@U?$pair@$$CBW4SIMCONNECT_EXCEPTION@@PEBD@std@@PEAX@1@@Z 0000000180008180 f i addon.obj
 0001:000073b0       ??$_Insert_hint@AEAU?$pair@$$CBHPEAVCallback@Nan@@@std@@PEAU?$_Tree_node@U?$pair@$$CBHPEAVCallback@Nan@@@std@@PEAX@2@@?$_Tree@V?$_Tmap_traits@HPEAVCallback@Nan@@U?$less@H@std@@V?$allocator@U?$pair@$$CBHPEAVCallback@Nan@@@std@@@4@$0A@@std@@@std@@IEAA?AV?$_Tree_iterator@V?$_Tree_val@U?$_Tree_simple_types@U?$pair@$$CBHPEAVCallback@Nan@@@std@@@std@@@std@@@1@V?$_Tree_const_iterator@V?$_Tree_val@U?$_Tree_simple_types@U?$pair@$$CBHPEAVCallback@Nan@@@std@@@std@@@std@@@1@AEAU?$pair@$$CBHPEAVCallback@Nan@@@1@PEAU?$_Tree_node@U?$pair@$$CBHPEAVCallback@Nan@@@std@@PEAX@1@@Z 00000001800083b0 f i addon.obj
 0001:00007600       ??$_Insert_hint@AEAU?$pair@$$CBHUDataRequest@@@std@@PEAU?$_Tree_node@U?$pair@$$CBHUDataRequest@@@std@@PEAX@2@@?$_Tree@V?$_Tmap_traits@HUDataRequest@@U?$less@H@std@@V?$allocator@U?$pair@$$CBHUDataRequest@@@std@@@3@$0A@@std@@@std@@IEAA?AV?$_Tree_iterator@V?$_Tree_val@U?$_Tree_simple_types@U?$pair@$$CBHUDataRequest@@@std@@@std@@@std@@@1@V?$_Tree_const_iterator@V?$_Tree_val@U?$_Tree_simple_types@U?$pair@$$CBHUDataRequest@@@std@@@std@@@std@@@1@AEAU?$pair@$$CBHUDataRequest@@@1@PEAU?$_Tree_node@U?$pair@$$CBHUDataRequest@@@std@@PEAX@1@@Z 0000000180008600 f i addon.obj
 0001:00007830       ??$_Insert_at@AEAU?$pair@$$CBW4SIMCONNECT_DATATYPE@@H@std@@PEAU?$_Tree_node@U?$pair@$$CBW4SIMCONNECT_DATATYPE@@H@std@@PEAX@2@@?$_Tree@V?$_Tmap_traits@W4SIMCONNECT_DATATYPE@@HU?$less@W4SIMCONNECT_DATATYPE@@@std@@V?$allocator@U?$pair@$$CBW4SIMCONNECT_DATATYPE@@H@std@@@3@$0A@@std@@@std@@IEAA?AV?$_Tree_iterator@V?$_Tree_val@U?$_Tree_simple_types@U?$pair@$$CBW4SIMCONNECT_DATATYPE@@H@std@@@std@@@std@@@1@_NPEAU?$_Tree_node@U?$pair@$$CBW4SIMCONNECT_DATATYPE@@H@std@@PEAX@1@AEAU?$pair@$$CBW4SIMCONNECT_DATATYPE@@H@1@1@Z 0000000180008830 f i addon.obj
 0001:00007b00       ??$_Insert_nohint@AEAU?$pair@$$CBW4SIMCONNECT_DATATYPE@@H@std@@PEAU?$_Tree_node@U?$pair@$$CBW4SIMCONNECT_DATATYPE@@H@std@@PEAX@2@@?$_Tree@V?$_Tmap_traits@W4SIMCONNECT_DATATYPE@@HU?$less@W4SIMCONNECT_DATATYPE@@@std@@V?$allocator@U?$pair@$$CBW4SIMCONNECT_DATATYPE@@H@std@@@3@$0A@@std@@@std@@IEAA?AU?$pair@V?$_Tree_iterator@V?$_Tree_val@U?$_Tree_simple_types@U?$pair@$$CBW4SIMCONNECT_DATATYPE@@H@std@@@std@@@std@@@std@@_N@1@_NAEAU?$pair@$$CBW4SIMCONNECT_DATATYPE@@H@1@PEAU?$_Tree_node@U?$pair@$$CBW4SIMCONNECT_DATATYPE@@H@std@@PEAX@1@@Z 0000000180008b00 f i addon.obj
 0001:00007c20       ??$_Insert_at@AEAU?$pair@$$CBW4SIMCONNECT_EXCEPTION@@PEBD@std@@PEAU?$_Tree_node@U?$pair@$$CBW4SIMCONNECT_EXCEPTION@@PEBD@std@@PEAX@2@@?$_Tree@V?$_Tmap_traits@W4SIMCONNECT_EXCEPTION@@PEBDU?$less@W4SIMCONNECT_EXCEPTION@@@std@@V?$allocator@U?$pair@$$CBW4SIMCONNECT_EXCEPTION@@PEBD@std@@@3@$0A@@std@@@std@@IEAA?AV?$_Tree_iterator@V?$_Tree_val@U?$_Tree_simple_types@U?$pair@$$CBW4SIMCONNECT_EXCEPTION@@PEBD@std@@@std@@@std@@@1@_NPEAU?$_Tree_node@U?$pair@$$CBW4SIMCONNECT_EXCEPTION@@PEBD@std@@PEAX@1@AEAU?$pair@$$CBW4SIMCONNECT_EXCEPTION@@PEBD@1@1@Z 0000000180008c20 f i addon.obj
 0001:00007ef0       ??$_Insert_nohint@AEAU?$pair@$$CBW4SIMCONNECT_EXCEPTION@@PEBD@std@@PEAU?$_Tree_node@U?$pair@$$CBW4SIMCONNECT_EXCEPTION@@PEBD@std@@PEAX@2@@?$_Tree@V?$_Tmap_traits@W4SIMCONNECT_EXCEPTION@@PEBDU?$less@W4SIMCONNECT_EXCEPTION@@@std@@V?$allocator@U?$pair@$$CBW4SIMCONNECT_EXCEPTION@@PEBD@std@@@3@$0A@@std@@@std@@IEAA?AU?$pair@V?$_Tree_iterator@V?$_Tree_val@U?$_Tree_simple_types@U?$pair@$$CBW4SIMCONNECT_EXCEPTION@@PEBD@std@@@std@@@std@@@std@@_N@1@_NAEAU?$pair@$$CBW4SIMCONNECT_EXCEPTION@@PEBD@1@PEAU?$_Tree_node@U?$pair@$$CBW4SIMCONNECT_EXCEPTION@@PEBD@std@@PEAX@1@@Z 0000000180008ef0 f i addon.obj
 0001:00008010       ??$_Insert_at@AEAU?$pair@$$CBHPEAVCallback@Nan@@@std@@PEAU?$_Tree_node@U?$pair@$$CBHPEAVCallback@Nan@@@std@@PEAX@2@@?$_Tree@V?$_Tmap_traits@HPEAVCallback@Nan@@U?$less@H@std@@V?$allocator@U?$pair@$$CBHPEAVCallback@Nan@@@std@@@4@$0A@@std@@@std@@IEAA?AV?$_Tree_iterator@V?$_Tree_val@U?$_Tree_simple_types@U?$pair@$$CBHPEAVCallback@Nan@@@std@@@std@@@std@@@1@_NPEAU?$_Tree_node@U?$pair@$$CBHPEAVCallback@Nan@@@std@@PEAX@1@AEAU?$pair@$$CBHPEAVCallback@Nan@@@1@1@Z 0000000180009010 f i addon.obj
 0001:000082c0       ??$_Insert_nohint@AEAU?$pair@$$CBHPEAVCallback@Nan@@@std@@PEAU?$_Tree_node@U?$pair@$$CBHPEAVCallback@Nan@@@std@@PEAX@2@@?$_Tree@V?$_Tmap_traits@HPEAVCallback@Nan@@U?$less@H@std@@V?$allocator@U?$pair@$$CBHPEAVCallback@Nan@@@std@@@4@$0A@@std@@@std@@IEAA?AU?$pair@V?$_Tree_iterator@V?$_Tree_val@U?$_Tree_simple_types@U?$pair@$$CBHPEAVCallback@Nan@@@std@@@std@@@std@@@std@@_N@1@_NAEAU?$pair@$$CBHPEAVCallback@Nan@@@1@PEAU?$_Tree_node@U?$pair@$$CBHPEAVCallback@Nan@@@std@@PEAX@1@@Z 00000001800092c0 f i addon.obj
 0001:000083e0       ??$_Insert_at@AEAU?$pair@$$CBHUDataRequest@@@std@@PEAU?$_Tree_node@U?$pair@$$CBHUDataRequest@@@std@@PEAX@2@@?$_Tree@V?$_Tmap_traits@HUDataRequest@@U?$less@H@std@@V?$allocator@U?$pair@$$CBHUDataRequest@@@std@@@3@$0A@@std@@@std@@IEAA?AV?$_Tree_iterator@V?$_Tree_val@U?$_Tree_simple_types@U?$pair@$$CBHUDataRequest@@@std@@@std@@@std@@@1@_NPEAU?$_Tree_node@U?$pair@$$CBHUDataRequest@@@std@@PEAX@1@AEAU?$pair@$$CBHUDataRequest@@@1@1@Z 00000001800093e0 f i addon.obj
 0001:000086c0       ??$_Insert_nohint@AEAU?$pair@$$CBHUDataRequest@@@std@@PEAU?$_Tree_node@U?$pair@$$CBHUDataRequest@@@std@@PEAX@2@@?$_Tree@V?$_Tmap_traits@HUDataRequest@@U?$less@H@std@@V?$allocator@U?$pair@$$CBHUDataRequest@@@std@@@3@$0A@@std@@@std@@IEAA?AU?$pair@V?$_Tree_iterator@V?$_Tree_val@U?$_Tree_simple_types@U?$pair@$$CBHUDataRequest@@@std@@@std@@@std@@@std@@_N@1@_NAEAU?$pair@$$CBHUDataRequest@@@1@PEAU?$_Tree_node@U?$pair@$$CBHUDataRequest@@@std@@PEAX@1@@Z 00000001800096c0 f i addon.obj
 0001:0000883e       __imp_load_uv_sem_wait     000000018000983e f   node:node.exe
 0001:0000884a       __tailMerge_node_exe       000000018000984a f i node:node.exe
 0001:000088c3       __imp_load_uv_queue_work   00000001800098c3 f   node:node.exe
 0001:000088cf       __imp_load_?Global@Context@v8@@QEAA?AV?$Local@VObject@v8@@@2@XZ 00000001800098cf f   node:node.exe
 0001:000088db       __imp_load_?New@Integer@v8@@SA?AV?$Local@VInteger@v8@@@2@PEAVIsolate@2@H@Z 00000001800098db f   node:node.exe
 0001:000088e7       __imp_load_?GetCurrentContext@Isolate@v8@@QEAA?AV?$Local@VContext@v8@@@2@XZ 00000001800098e7 f   node:node.exe
 0001:000088f3       __imp_load_?GetCurrent@Isolate@v8@@SAPEAV12@XZ 00000001800098f3 f   node:node.exe
 0001:000088ff       __imp_load_?CreateHandle@HandleScope@v8@@KAPEAPEAVObject@internal@2@PEAVIsolate@42@PEAV342@@Z 00000001800098ff f   node:node.exe
 0001:0000890b       __imp_load_??1HandleScope@v8@@QEAA@XZ 000000018000990b f   node:node.exe
 0001:00008917       __imp_load_??0HandleScope@v8@@QEAA@PEAVIsolate@1@@Z 0000000180009917 f   node:node.exe
 0001:00008923       __imp_load_?Error@Exception@v8@@SA?AV?$Local@VValue@v8@@@2@V?$Local@VString@v8@@@2@@Z 0000000180009923 f   node:node.exe
 0001:0000892f       __imp_load_?New@Array@v8@@SA?AV?$Local@VArray@v8@@@2@PEAVIsolate@2@H@Z 000000018000992f f   node:node.exe
 0001:0000893b       __imp_load_?Length@Array@v8@@QEBAIXZ 000000018000993b f   node:node.exe
 0001:00008947       __imp_load_?GetFunction@FunctionTemplate@v8@@QEAA?AV?$Local@VFunction@v8@@@2@XZ 0000000180009947 f   node:node.exe
 0001:00008953       __imp_load_?New@FunctionTemplate@v8@@SA?AV?$Local@VFunctionTemplate@v8@@@2@PEAVIsolate@2@P6AXAEBV?$FunctionCallbackInfo@VValue@v8@@@2@@ZV?$Local@VValue@v8@@@2@V?$Local@VSignature@v8@@@2@HW4ConstructorBehavior@2@@Z 0000000180009953 f   node:node.exe
 0001:0000895f       __imp_load_?ToLocalEmpty@V8@v8@@CAXXZ 000000018000995f f   node:node.exe
 0001:0000896b       __imp_load_?DisposeGlobal@V8@v8@@CAXPEAPEAVObject@internal@2@@Z 000000018000996b f   node:node.exe
 0001:00008977       __imp_load_?GlobalizeReference@V8@v8@@CAPEAPEAVObject@internal@2@PEAVIsolate@42@PEAPEAV342@@Z 0000000180009977 f   node:node.exe
 0001:00008983       __imp_load_?Int32Value@Value@v8@@QEBAHXZ 0000000180009983 f   node:node.exe
 0001:0000898f       __imp_load_?IntegerValue@Value@v8@@QEBA_JXZ 000000018000998f f   node:node.exe
 0001:0000899b       __imp_load_?NumberValue@Value@v8@@QEBANXZ 000000018000999b f   node:node.exe
 0001:000089a7       __imp_load_?ToObject@Value@v8@@QEBA?AV?$Local@VObject@v8@@@2@PEAVIsolate@2@@Z 00000001800099a7 f   node:node.exe
 0001:000089b3       __imp_load_?IsArray@Value@v8@@QEBA_NXZ 00000001800099b3 f   node:node.exe
 0001:000089bf       __imp_load_?Escape@EscapableHandleScope@v8@@AEAAPEAPEAVObject@internal@2@PEAPEAV342@@Z 00000001800099bf f   node:node.exe
 0001:000089cb       __imp_load_??0EscapableHandleScope@v8@@QEAA@PEAVIsolate@1@@Z 00000001800099cb f   node:node.exe
 0001:000089d7       __imp_load_??1Utf8Value@String@v8@@QEAA@XZ 00000001800099d7 f   node:node.exe
 0001:000089e3       __imp_load_??0Utf8Value@String@v8@@QEAA@V?$Local@VValue@v8@@@2@@Z 00000001800099e3 f   node:node.exe
 0001:000089ef       __imp_load_?NewFromOneByte@String@v8@@SA?AV?$Local@VString@v8@@@2@PEAVIsolate@2@PEBEW4NewStringType@12@H@Z 00000001800099ef f   node:node.exe
 0001:000089fb       __imp_load_?NewFromUtf8@String@v8@@SA?AV?$Local@VString@v8@@@2@PEAVIsolate@2@PEBDW4NewStringType@12@H@Z 00000001800099fb f   node:node.exe
 0001:00008a07       __imp_load_?NewFromUtf8@String@v8@@SA?AV?$MaybeLocal@VString@v8@@@2@PEAVIsolate@2@PEBDW4NewStringType@2@H@Z 0000000180009a07 f   node:node.exe
 0001:00008a13       __imp_load_?New@Number@v8@@SA?AV?$Local@VNumber@v8@@@2@PEAVIsolate@2@N@Z 0000000180009a13 f   node:node.exe
 0001:00008a1f       __imp_load_?New@Object@v8@@SA?AV?$Local@VObject@v8@@@2@PEAVIsolate@2@@Z 0000000180009a1f f   node:node.exe
 0001:00008a2b       __imp_load_?HasOwnProperty@Object@v8@@QEAA_NV?$Local@VString@v8@@@2@@Z 0000000180009a2b f   node:node.exe
 0001:00008a37       __imp_load_?Get@Object@v8@@QEAA?AV?$Local@VValue@v8@@@2@V32@@Z 0000000180009a37 f   node:node.exe
 0001:00008a43       __imp_load_?Get@Object@v8@@QEAA?AV?$Local@VValue@v8@@@2@I@Z 0000000180009a43 f   node:node.exe
 0001:00008a4f       __imp_load_?Set@Object@v8@@QEAA_NV?$Local@VValue@v8@@@2@0@Z 0000000180009a4f f   node:node.exe
 0001:00008a5b       __imp_load_?SetName@Function@v8@@QEAAXV?$Local@VString@v8@@@2@@Z 0000000180009a5b f   node:node.exe
 0001:00008a67       __imp_load_node_module_register 0000000180009a67 f   node:node.exe
 0001:00008a73       __imp_load_?MakeCallback@node@@YA?AV?$Local@VValue@v8@@@v8@@PEAVIsolate@3@V?$Local@VObject@v8@@@3@V?$Local@VFunction@v8@@@3@HPEAV23@@Z 0000000180009a73 f   node:node.exe
 0001:00008a7f       __imp_load_uv_sem_post     0000000180009a7f f   node:node.exe
 0001:00008a8b       __imp_load_uv_async_send   0000000180009a8b f   node:node.exe
 0001:00008a97       __imp_load_uv_async_init   0000000180009a97 f   node:node.exe
 0001:00008aa3       __imp_load_uv_sem_init     0000000180009aa3 f   node:node.exe
 0001:00008aaf       __imp_load_uv_default_loop 0000000180009aaf f   node:node.exe
 0001:00008abb       __imp_load_?ToString@Value@v8@@QEBA?AV?$Local@VString@v8@@@2@XZ 0000000180009abb f   node:node.exe
 0001:00008ad0       SimConnect_AddToDataDefinition 0000000180009ad0 f   SimConnect:SimConnectClient.obj
 0001:00008ca0       SimConnect_CallDispatch    0000000180009ca0 f   SimConnect:SimConnectClient.obj
 0001:00008cf0       SimConnect_Close           0000000180009cf0 f   SimConnect:SimConnectClient.obj
 0001:00008d40       SimConnect_GetNextDispatch 0000000180009d40 f   SimConnect:SimConnectClient.obj
 0001:00008d90       SimConnect_MapClientEventToSimEvent 0000000180009d90 f   SimConnect:SimConnectClient.obj
 0001:00008eb0       SimConnect_Open            0000000180009eb0 f   SimConnect:SimConnectClient.obj
 0001:00009070       SimConnect_RequestDataOnSimObject 000000018000a070 f   SimConnect:SimConnectClient.obj
 0001:000091a0       SimConnect_RequestSystemState 000000018000a1a0 f   SimConnect:SimConnectClient.obj
 0001:000092c0       SimConnect_RetrieveString  000000018000a2c0 f   SimConnect:SimConnectClient.obj
 0001:00009370       SimConnect_SetDataOnSimObject 000000018000a370 f   SimConnect:SimConnectClient.obj
 0001:000094b0       SimConnect_SubscribeToSystemEvent 000000018000a4b0 f   SimConnect:SimConnectClient.obj
 0001:000095d0       SimConnect_TransmitClientEvent 000000018000a5d0 f   SimConnect:SimConnectClient.obj
 0001:000096d0       ??0ClientClient@@QEAA@W4CLIENTTYPE@CClient@@@Z 000000018000a6d0 f   SimConnect:commClient.obj
 0001:00009820       ??1?$AutoWait@VAutoCriticalSection@@@@QEAA@XZ 000000018000a820 f i SimConnect:commClient.obj
 0001:00009830       ??1?$TSmartPtr@VQueueItem@@@@QEAA@XZ 000000018000a830 f i SimConnect:commClient.obj
 0001:00009870       ??1ClientClient@@UEAA@XZ   000000018000a870 f   SimConnect:commClient.obj
 0001:00009940       ??_EClientClient@@UEAAPEAXI@Z 000000018000a940 f i SimConnect:commClient.obj
 0001:00009940       ??_GClientClient@@UEAAPEAXI@Z 000000018000a940 f i SimConnect:commClient.obj
 0001:00009980       ??_EQueueItem@@MEAAPEAXI@Z 000000018000a980 f i SimConnect:commClient.obj
 0001:00009980       ??_GQueueItem@@MEAAPEAXI@Z 000000018000a980 f i SimConnect:commClient.obj
 0001:000099d0       ?AddElement@?$CQueue@V?$TSmartPtr@VQueueItem@@@@@@QEAAHAEBV?$TSmartPtr@VQueueItem@@@@@Z 000000018000a9d0 f i SimConnect:commClient.obj
 0001:00009a80       ?AddElement@?$CThreadSafeQueue@V?$TSmartPtr@VQueueItem@@@@@@QEAAHAEBV?$TSmartPtr@VQueueItem@@@@@Z 000000018000aa80 f i SimConnect:commClient.obj
 0001:00009b80       ?ClientPutInQueue@@YAXKKIPEAX@Z 000000018000ab80 f   SimConnect:commClient.obj
 0001:00009c90       ?Close@ClientClient@@UEAAXW4CLIENTERROR@@K@Z 000000018000ac90 f   SimConnect:commClient.obj
 0001:00009cf0       ?CommClient_AutoFlush@@YA?AW4CC_RESULT@@PEAX@Z 000000018000acf0 f   SimConnect:commClient.obj
 0001:00009d10       ?CommClient_Close@@YA?AW4CC_RESULT@@PEAX@Z 000000018000ad10 f   SimConnect:commClient.obj
 0001:00009eb0       ?CommClient_GetErrors@@YA?AW4CC_RESULT@@PEAXAEAHAEAK@Z 000000018000aeb0 f   SimConnect:commClient.obj
 0001:00009ed0       ?CommClient_GetReceive@@YA?AW4CC_RESULT@@PEAXPEAPEAUSIMCONNECT_RECV@@PEAK@Z 000000018000aed0 f   SimConnect:commClient.obj
 0001:0000a020       ?CommClient_Open@@YA?AW4CC_RESULT@@PEAPEAXK@Z 000000018000b020 f   SimConnect:commClient.obj
 0001:0000a6d0       ?CommClient_ReceiveDispatch@@YA?AW4CC_RESULT@@PEAXP6AXPEAUSIMCONNECT_RECV@@K0@Z0@Z 000000018000b6d0 f   SimConnect:commClient.obj
 0001:0000a880       ?CommClient_SendAbort@@YA?AW4CC_RESULT@@PEAXPEAUSIMCONNECT_SEND@@K@Z 000000018000b880 f   SimConnect:commClient.obj
 0001:0000a980       ?CommClient_SendAllocate@@YA?AW4CC_RESULT@@PEAXPEAPEAUSIMCONNECT_SEND@@K@Z 000000018000b980 f   SimConnect:commClient.obj
 0001:0000aae0       ?CommClient_SendFlush@@YA?AW4CC_RESULT@@PEAX@Z 000000018000bae0 f   SimConnect:commClient.obj
 0001:0000ac80       ?CommClient_SetReceive@@YA?AW4CC_RESULT@@PEAXP6AXPEAUSIMCONNECT_RECV@@K0@ZPEAUHWND__@@K0@Z 000000018000bc80 f   SimConnect:commClient.obj
 0001:0000acb0       ?Connect@ClientClient@@QEAA_NHPEB_W0I_N@Z 000000018000bcb0 f   SimConnect:commClient.obj
 0001:0000af90       ?DeleteAll@?$CQueue@V?$TSmartPtr@VQueueItem@@@@@@QEAAHXZ 000000018000bf90 f i SimConnect:commClient.obj
 0001:0000b020       ?ExtractElement@?$CQueue@V?$TSmartPtr@VQueueItem@@@@@@QEAAHAEAV?$TSmartPtr@VQueueItem@@@@@Z 000000018000c020 f i SimConnect:commClient.obj
 0001:0000b100       ?GetRegistryPort@@YA_N_NPEA_W@Z 000000018000c100 f   SimConnect:commClient.obj
 0001:0000b1d0       ?New@QueueItem@@SA?AV?$TSmartPtr@VQueueItem@@@@PEBXIHK@Z 000000018000c1d0 f i SimConnect:commClient.obj
 0001:0000b280       ?ProcessPacket@ClientClient@@UEAA?AW4PROCESSPACKET@CClient@@PEAVtagPacket@@@Z 000000018000c280 f   SimConnect:commClient.obj
 0001:0000b370       ?Reset@ClientClient@@UEAAXXZ 000000018000c370 f   SimConnect:commClient.obj
 0001:0000b490       ?StringCbPrintfW@@YAJPEA_W_KPEB_WZZ 000000018000c490 f i SimConnect:commClient.obj
 0001:0000b560       ?Unlink@ClientClient@@QEAAXXZ 000000018000c560 f   SimConnect:commClient.obj
 0001:0000b640       ?WinSockStartup@@YA_NXZ    000000018000c640 f   SimConnect:commClient.obj
 0001:0000b6c0       ?_Reallocate@?$vector@UCLIENT_INPROC_ALLOC@@V?$allocator@UCLIENT_INPROC_ALLOC@@@std@@@std@@IEAAX_K@Z 000000018000c6c0 f i SimConnect:commClient.obj
 0001:0000b790       ?_Reserve@?$vector@UCLIENT_INPROC_ALLOC@@V?$allocator@UCLIENT_INPROC_ALLOC@@@std@@@std@@IEAAX_K@Z 000000018000c790 f i SimConnect:commClient.obj
 0001:0000b860       ?allocate@?$allocator@UCLIENT_INPROC_ALLOC@@@std@@QEAAPEAUCLIENT_INPROC_ALLOC@@_K@Z 000000018000c860 f i SimConnect:commClient.obj
 0001:0000b8e0       ?deallocate@?$allocator@UCLIENT_INPROC_ALLOC@@@std@@QEAAXPEAUCLIENT_INPROC_ALLOC@@_K@Z 000000018000c8e0 f i SimConnect:commClient.obj
 0001:0000b960       ?push_back@?$vector@UCLIENT_INPROC_ALLOC@@V?$allocator@UCLIENT_INPROC_ALLOC@@@std@@@std@@QEAAXAEBUCLIENT_INPROC_ALLOC@@@Z 000000018000c960 f i SimConnect:commClient.obj
 0001:0000ba30       ?readConfigFile@@YAXPEA_WKAEAH00AEAIAEA_N@Z 000000018000ca30 f   SimConnect:commClient.obj
 0001:0000bd90       ?validateConfigIndex@@YA?AW4CC_RESULT@@K@Z 000000018000cd90 f   SimConnect:commClient.obj
 0001:0000bef0       ?validateConfigIndexFile@@YA?AW4CC_RESULT@@PEA_WK@Z 000000018000cef0 f   SimConnect:commClient.obj
 0001:0000bfc0       ??0CClient@@QEAA@W4CLIENTTYPE@0@@Z 000000018000cfc0 f   SimConnect:client.obj
 0001:0000c0a0       ??1CClient@@UEAA@XZ        000000018000d0a0 f   SimConnect:client.obj
 0001:0000c0e0       ??_GCClient@@UEAAPEAXI@Z   000000018000d0e0 f i SimConnect:client.obj
 0001:0000c0e0       ??_ECClient@@UEAAPEAXI@Z   000000018000d0e0 f i SimConnect:client.obj
 0001:0000c140       ?Close@CClient@@UEAAXW4CLIENTERROR@@K@Z 000000018000d140 f   SimConnect:client.obj
 0001:0000c290       ?CreateInvalidPacket@CClient@@QEAAXPEAVtagPacket@@@Z 000000018000d290 f   SimConnect:client.obj
 0001:0000c2d0       ?Deinit@CClient@@QEAAXXZ   000000018000d2d0 f   SimConnect:client.obj
 0001:0000c370       ?DoneIO@CClient@@SAXKKPEAU_OVERLAPPED@@@Z 000000018000d370 f   SimConnect:client.obj
 0001:0000c540       ?Init@CClient@@QEAAX_NTSOCKETHANDLE@@HI0@Z 000000018000d540 f   SimConnect:client.obj
 0001:0000c670       ?IsProtocolAvailable@CClient@@SA_N_N@Z 000000018000d670 f   SimConnect:client.obj
 0001:0000c7b0       ?IssueNetRead@CClient@@QEAAXXZ 000000018000d7b0 f   SimConnect:client.obj
 0001:0000c8a0       ?Maintenance@CClient@@QEAA_NXZ 000000018000d8a0 f   SimConnect:client.obj
 0001:0000c940       ?ProcessPacket@CClient@@MEAA?AW4PROCESSPACKET@1@PEAVtagPacket@@@Z 000000018000d940 f   SimConnect:client.obj
 0001:0000c940       __scrt_stub_for_is_c_termination_complete 000000018000d940 f   MSVCRT:ucrt_stubs.obj
 0001:0000c940       _is_c_termination_complete 000000018000d940 f   MSVCRT:ucrt_stubs.obj
 0001:0000c950       ?Read@CClient@@AEAA?AW4READRESULT@1@PEAVtagPacket@@@Z 000000018000d950 f   SimConnect:client.obj
 0001:0000cb80       ?Release@CClient@@QEAA_NXZ 000000018000db80 f i SimConnect:client.obj
 0001:0000cbc0       ?Reset@CClient@@UEAAXXZ    000000018000dbc0 f   SimConnect:client.obj
 0001:0000ccf0       ?XNetWrite@CClient@@AEAA_N_N@Z 000000018000dcf0 f   SimConnect:client.obj
 0001:0000ce90       ?XWrite@CClient@@QEAA_NAEBV?$TSmartPtr@VQueueItem@@@@@Z 000000018000de90 f   SimConnect:client.obj
 0001:0000cf30       __security_check_cookie    000000018000df30 f   MSVCRT:_amdsecgs_.obj
 0001:0000cf54       ??2@YAPEAX_K@Z             000000018000df54 f   MSVCRT:new_scalar.obj
 0001:0000cf90       __scrt_acquire_startup_lock 000000018000df90 f   MSVCRT:utility.obj
 0001:0000cfcc       __scrt_dllmain_after_initialize_c 000000018000dfcc f   MSVCRT:utility.obj
 0001:0000d000       __scrt_dllmain_before_initialize_c 000000018000e000 f   MSVCRT:utility.obj
 0001:0000d018       __scrt_dllmain_crt_thread_attach 000000018000e018 f   MSVCRT:utility.obj
 0001:0000d040       __scrt_dllmain_crt_thread_detach 000000018000e040 f   MSVCRT:utility.obj
 0001:0000d058       __scrt_dllmain_exception_filter 000000018000e058 f   MSVCRT:utility.obj
 0001:0000d0bc       __scrt_dllmain_uninitialize_c 000000018000e0bc f   MSVCRT:utility.obj
 0001:0000d0ec       __scrt_dllmain_uninitialize_critical 000000018000e0ec f   MSVCRT:utility.obj
 0001:0000d100       __scrt_initialize_crt      000000018000e100 f   MSVCRT:utility.obj
 0001:0000d14c       __scrt_initialize_onexit_tables 000000018000e14c f   MSVCRT:utility.obj
 0001:0000d218       __scrt_is_nonwritable_in_current_image 000000018000e218 f   MSVCRT:utility.obj
 0001:0000d2b4       __scrt_release_startup_lock 000000018000e2b4 f   MSVCRT:utility.obj
 0001:0000d2d8       __scrt_uninitialize_crt    000000018000e2d8 f   MSVCRT:utility.obj
 0001:0000d304       _onexit                    000000018000e304 f   MSVCRT:utility.obj
 0001:0000d354       atexit                     000000018000e354 f   MSVCRT:utility.obj
 0001:0000d36c       ??3@YAXPEAX@Z              000000018000e36c f   MSVCRT:delete_scalar.obj
 0001:0000d374       ??3@YAXPEAX_K@Z            000000018000e374 f   MSVCRT:delete_scalar_size.obj
 0001:0000d374       ??_V@YAXPEAX@Z             000000018000e374 f   MSVCRT:delete_array.obj
 0001:0000d6c8       _DllMainCRTStartup         000000018000e6c8 f   MSVCRT:dll_dllmain.obj
 0001:0000d708       ??_U@YAPEAX_K@Z            000000018000e708 f   MSVCRT:new_array.obj
 0001:0000d710       __GSHandlerCheck           000000018000e710 f   MSVCRT:_gshandler_.obj
 0001:0000d730       __GSHandlerCheckCommon     000000018000e730 f   MSVCRT:_gshandler_.obj
 0001:0000d78c       __GSHandlerCheck_EH        000000018000e78c f   MSVCRT:gshandlereh.obj
 0001:0000d820       __chkstk                   000000018000e820 f   MSVCRT:_chkstk_.obj
 0001:0000d820       _alloca_probe              000000018000e820 f   MSVCRT:_chkstk_.obj
 0001:0000d874       __raise_securityfailure    000000018000e874 f   MSVCRT:gs_report.obj
 0001:0000d8a8       __report_gsfailure         000000018000e8a8 f   MSVCRT:gs_report.obj
 0001:0000d9f0       ??0bad_alloc@std@@QEAA@AEBV01@@Z 000000018000e9f0 f i MSVCRT:throw_bad_alloc.obj
 0001:0000da30       ??0bad_alloc@std@@QEAA@XZ  000000018000ea30 f i MSVCRT:throw_bad_alloc.obj
 0001:0000da50       ??0bad_array_new_length@std@@QEAA@AEBV01@@Z 000000018000ea50 f i MSVCRT:throw_bad_alloc.obj
 0001:0000da90       ??0bad_array_new_length@std@@QEAA@XZ 000000018000ea90 f i MSVCRT:throw_bad_alloc.obj
 0001:0000dab0       ??0exception@std@@QEAA@AEBV01@@Z 000000018000eab0 f i MSVCRT:throw_bad_alloc.obj
 0001:0000dae8       ??1bad_alloc@std@@UEAA@XZ  000000018000eae8 f i MSVCRT:throw_bad_alloc.obj
 0001:0000dae8       ??1bad_array_new_length@std@@UEAA@XZ 000000018000eae8 f i MSVCRT:throw_bad_alloc.obj
 0001:0000dafc       ??_Ebad_alloc@std@@UEAAPEAXI@Z 000000018000eafc f i MSVCRT:throw_bad_alloc.obj
 0001:0000dafc       ??_Gexception@std@@UEAAPEAXI@Z 000000018000eafc f i MSVCRT:throw_bad_alloc.obj
 0001:0000dafc       ??_Ebad_array_new_length@std@@UEAAPEAXI@Z 000000018000eafc f i MSVCRT:throw_bad_alloc.obj
 0001:0000dafc       ??_Gbad_alloc@std@@UEAAPEAXI@Z 000000018000eafc f i MSVCRT:throw_bad_alloc.obj
 0001:0000dafc       ??_Eexception@std@@UEAAPEAXI@Z 000000018000eafc f i MSVCRT:throw_bad_alloc.obj
 0001:0000dafc       ??_Gbad_array_new_length@std@@UEAAPEAXI@Z 000000018000eafc f i MSVCRT:throw_bad_alloc.obj
 0001:0000db40       ?__scrt_throw_std_bad_alloc@@YAXXZ 000000018000eb40 f   MSVCRT:throw_bad_alloc.obj
 0001:0000db60       ?__scrt_throw_std_bad_array_new_length@@YAXXZ 000000018000eb60 f   MSVCRT:throw_bad_alloc.obj
 0001:0000db80       ?what@exception@std@@UEBAPEBDXZ 000000018000eb80 f i MSVCRT:throw_bad_alloc.obj
 0001:0000db94       __isa_available_init       000000018000eb94 f   MSVCRT:_cpu_disp_.obj
 0001:0000dd5c       _get_startup_argv_mode     000000018000ed5c f   MSVCRT:argv_mode.obj
 0001:0000dd64       __scrt_is_ucrt_dll_in_use  000000018000ed64 f   MSVCRT:ucrt_detection.obj
 0001:0000dd70       __scrt_fastfail            000000018000ed70 f   MSVCRT:utility_desktop.obj
 0001:0000deb8       _guard_check_icall         000000018000eeb8 f i MSVCRT:checkcfg.obj
 0001:0000dec0       __security_init_cookie     000000018000eec0 f   MSVCRT:gs_support.obj
 0001:0000df6c       DllMain                    000000018000ef6c f   MSVCRT:dll_dllmain_stub.obj
 0001:0000df90       ?__scrt_initialize_type_info@@YAXXZ 000000018000ef90 f   MSVCRT:tncleanup.obj
 0001:0000dfa0       ?__scrt_uninitialize_type_info@@YAXXZ 000000018000efa0 f   MSVCRT:tncleanup.obj
 0001:0000dfac       __local_stdio_scanf_options 000000018000efac f i MSVCRT:default_local_stdio_options.obj
 0001:0000dfb4       __scrt_initialize_default_local_stdio_options 000000018000efb4 f   MSVCRT:default_local_stdio_options.obj
 0001:0000dfd0       __scrt_get_dyn_tls_init_callback 000000018000efd0 f   MSVCRT:dyn_tls_init.obj
 0001:0000dfd8       _RTC_Initialize            000000018000efd8 f   MSVCRT:_initsect_.obj
 0001:0000e024       _RTC_Terminate             000000018000f024 f   MSVCRT:_initsect_.obj
 0001:0000e070       ??_Gtype_info@@UEAAPEAXI@Z 000000018000f070 f i MSVCRT:std_type_info_static.obj
 0001:0000e070       ??_Etype_info@@UEAAPEAXI@Z 000000018000f070 f i MSVCRT:std_type_info_static.obj
 0001:0000e0a0       _purecall                  000000018000f0a0 f   vcruntime:VCRUNTIME140.dll
 0001:0000e0a6       memcpy                     000000018000f0a6 f   vcruntime:VCRUNTIME140.dll
 0001:0000e0ac       _CxxThrowException         000000018000f0ac f   vcruntime:VCRUNTIME140.dll
 0001:0000e0b2       __CxxFrameHandler3         000000018000f0b2 f   vcruntime:VCRUNTIME140.dll
 0001:0000e0b8       memset                     000000018000f0b8 f   vcruntime:VCRUNTIME140.dll
 0001:0000e0be       __C_specific_handler       000000018000f0be f   vcruntime:VCRUNTIME140.dll
 0001:0000e0c4       __std_exception_copy       000000018000f0c4 f   vcruntime:VCRUNTIME140.dll
 0001:0000e0ca       __std_exception_destroy    000000018000f0ca f   vcruntime:VCRUNTIME140.dll
 0001:0000e0d0       __std_type_info_destroy_list 000000018000f0d0 f   vcruntime:VCRUNTIME140.dll
 0001:0000e0d6       _callnewh                  000000018000f0d6 f   ucrt:api-ms-win-crt-heap-l1-1-0.dll
 0001:0000e0dc       malloc                     000000018000f0dc f   ucrt:api-ms-win-crt-heap-l1-1-0.dll
 0001:0000e0e2       _seh_filter_dll            000000018000f0e2 f   ucrt:api-ms-win-crt-runtime-l1-1-0.dll
 0001:0000e0e8       _configure_narrow_argv     000000018000f0e8 f   ucrt:api-ms-win-crt-runtime-l1-1-0.dll
 0001:0000e0ee       _initialize_narrow_environment 000000018000f0ee f   ucrt:api-ms-win-crt-runtime-l1-1-0.dll
 0001:0000e0f4       _initialize_onexit_table   000000018000f0f4 f   ucrt:api-ms-win-crt-runtime-l1-1-0.dll
 0001:0000e0fa       _register_onexit_function  000000018000f0fa f   ucrt:api-ms-win-crt-runtime-l1-1-0.dll
 0001:0000e100       _execute_onexit_table      000000018000f100 f   ucrt:api-ms-win-crt-runtime-l1-1-0.dll
 0001:0000e106       _crt_atexit                000000018000f106 f   ucrt:api-ms-win-crt-runtime-l1-1-0.dll
 0001:0000e10c       _cexit                     000000018000f10c f   ucrt:api-ms-win-crt-runtime-l1-1-0.dll
 0001:0000e112       free                       000000018000f112 f   ucrt:api-ms-win-crt-heap-l1-1-0.dll
 0001:0000e118       _initterm                  000000018000f118 f   ucrt:api-ms-win-crt-runtime-l1-1-0.dll
 0001:0000e11e       _initterm_e                000000018000f11e f   ucrt:api-ms-win-crt-runtime-l1-1-0.dll
 0001:0000e124       IsProcessorFeaturePresent  000000018000f124 f   kernel32:KERNEL32.dll
 0001:0000e12a       SHGetKnownFolderPath       000000018000f12a f   shell32:SHELL32.dll
 0001:0000e130       ?DloadAcquireSectionWriteAccess@@YAXXZ 000000018000f130 f i DelayImp:delayhlp.obj
 0001:0000e1ec       ?DloadGetSRWLockFunctionPointers@@YAEXZ 000000018000f1ec f i DelayImp:delayhlp.obj
 0001:0000e288       ?DloadMakePermanentImageCommit@@YAXPEAX_K@Z 000000018000f288 f i DelayImp:delayhlp.obj
 0001:0000e320       ?DloadObtainSection@@YAPEAXPEAK0@Z 000000018000f320 f i DelayImp:delayhlp.obj
 0001:0000e3b8       ?DloadProtectSection@@YAXKPEAK@Z 000000018000f3b8 f i DelayImp:delayhlp.obj
 0001:0000e448       ?DloadReleaseSectionWriteAccess@@YAXXZ 000000018000f448 f i DelayImp:delayhlp.obj
 0001:0000e4ec       __delayLoadHelper2         000000018000f4ec f   DelayImp:delayhlp.obj
 0001:0000e7e8       __vcrt_initialize          000000018000f7e8 f   MSVCRT:ucrt_stubs.obj
 0001:0000e7e8       __acrt_uninitialize_critical 000000018000f7e8 f   MSVCRT:ucrt_stubs.obj
 0001:0000e7e8       __acrt_uninitialize        000000018000f7e8 f   MSVCRT:ucrt_stubs.obj
 0001:0000e7e8       __vcrt_thread_attach       000000018000f7e8 f   MSVCRT:ucrt_stubs.obj
 0001:0000e7e8       __scrt_stub_for_acrt_uninitialize_critical 000000018000f7e8 f   MSVCRT:ucrt_stubs.obj
 0001:0000e7e8       __vcrt_uninitialize_critical 000000018000f7e8 f   MSVCRT:ucrt_stubs.obj
 0001:0000e7e8       __scrt_stub_for_acrt_initialize 000000018000f7e8 f   MSVCRT:ucrt_stubs.obj
 0001:0000e7e8       __vcrt_thread_detach       000000018000f7e8 f   MSVCRT:ucrt_stubs.obj
 0001:0000e7e8       __scrt_stub_for_acrt_thread_detach 000000018000f7e8 f   MSVCRT:ucrt_stubs.obj
 0001:0000e7e8       __acrt_initialize          000000018000f7e8 f   MSVCRT:ucrt_stubs.obj
 0001:0000e7e8       __vcrt_uninitialize        000000018000f7e8 f   MSVCRT:ucrt_stubs.obj
 0001:0000e7e8       __acrt_thread_attach       000000018000f7e8 f   MSVCRT:ucrt_stubs.obj
 0001:0000e7e8       __scrt_stub_for_acrt_thread_attach 000000018000f7e8 f   MSVCRT:ucrt_stubs.obj
 0001:0000e7e8       __acrt_thread_detach       000000018000f7e8 f   MSVCRT:ucrt_stubs.obj
 0001:0000e7e8       __scrt_stub_for_acrt_uninitialize 000000018000f7e8 f   MSVCRT:ucrt_stubs.obj
 0001:0000e800       _guard_dispatch_icall_nop  000000018000f800 f   MSVCRT:_guard_dispatch_.obj
 0002:00000000       __imp_RegCloseKey          0000000180010000     advapi32:ADVAPI32.dll
 0002:00000008       __imp_RegQueryValueExW     0000000180010008     advapi32:ADVAPI32.dll
 0002:00000010       __imp_RegOpenKeyExW        0000000180010010     advapi32:ADVAPI32.dll
 0002:00000018       \177ADVAPI32_NULL_THUNK_DATA 0000000180010018     advapi32:ADVAPI32.dll
 0002:00000020       __imp_VirtualQuery         0000000180010020     kernel32:KERNEL32.dll
 0002:00000028       __imp_GetProcAddress       0000000180010028     kernel32:KERNEL32.dll
 0002:00000030       __imp_GetSystemInfo        0000000180010030     kernel32:KERNEL32.dll
 0002:00000038       __imp_RaiseException       0000000180010038     kernel32:KERNEL32.dll
 0002:00000040       __imp_GetModuleHandleA     0000000180010040     kernel32:KERNEL32.dll
 0002:00000048       __imp_VirtualProtect       0000000180010048     kernel32:KERNEL32.dll
 0002:00000050       __imp_FreeLibrary          0000000180010050     kernel32:KERNEL32.dll
 0002:00000058       __imp_Sleep                0000000180010058     kernel32:KERNEL32.dll
 0002:00000060       __imp_InitializeSListHead  0000000180010060     kernel32:KERNEL32.dll
 0002:00000068       __imp_DisableThreadLibraryCalls 0000000180010068     kernel32:KERNEL32.dll
 0002:00000070       __imp_GetSystemTimeAsFileTime 0000000180010070     kernel32:KERNEL32.dll
 0002:00000078       __imp_GetCurrentThreadId   0000000180010078     kernel32:KERNEL32.dll
 0002:00000080       __imp_GetModuleHandleW     0000000180010080     kernel32:KERNEL32.dll
 0002:00000088       __imp_IsDebuggerPresent    0000000180010088     kernel32:KERNEL32.dll
 0002:00000090       __imp_IsProcessorFeaturePresent 0000000180010090     kernel32:KERNEL32.dll
 0002:00000098       __imp_TerminateProcess     0000000180010098     kernel32:KERNEL32.dll
 0002:000000a0       __imp_GetCurrentProcess    00000001800100a0     kernel32:KERNEL32.dll
 0002:000000a8       __imp_SetUnhandledExceptionFilter 00000001800100a8     kernel32:KERNEL32.dll
 0002:000000b0       __imp_UnhandledExceptionFilter 00000001800100b0     kernel32:KERNEL32.dll
 0002:000000b8       __imp_RtlVirtualUnwind     00000001800100b8     kernel32:KERNEL32.dll
 0002:000000c0       __imp_RtlLookupFunctionEntry 00000001800100c0     kernel32:KERNEL32.dll
 0002:000000c8       __imp_RtlCaptureContext    00000001800100c8     kernel32:KERNEL32.dll
 0002:000000d0       __imp_CreateEventW         00000001800100d0     kernel32:KERNEL32.dll
 0002:000000d8       __imp_InitializeCriticalSection 00000001800100d8     kernel32:KERNEL32.dll
 0002:000000e0       __imp_CancelIo             00000001800100e0     kernel32:KERNEL32.dll
 0002:000000e8       __imp_CloseHandle          00000001800100e8     kernel32:KERNEL32.dll
 0002:000000f0       __imp_WriteFile            00000001800100f0     kernel32:KERNEL32.dll
 0002:000000f8       __imp_ReadFile             00000001800100f8     kernel32:KERNEL32.dll
 0002:00000100       __imp_BindIoCompletionCallback 0000000180010100     kernel32:KERNEL32.dll
 0002:00000108       __imp_GetPrivateProfileSectionW 0000000180010108     kernel32:KERNEL32.dll
 0002:00000110       __imp_GetPrivateProfileStringW 0000000180010110     kernel32:KERNEL32.dll
 0002:00000118       __imp_lstrcmpiW            0000000180010118     kernel32:KERNEL32.dll
 0002:00000120       __imp_GetCurrentProcessId  0000000180010120     kernel32:KERNEL32.dll
 0002:00000128       __imp_SetEvent             0000000180010128     kernel32:KERNEL32.dll
 0002:00000130       __imp_DeleteCriticalSection 0000000180010130     kernel32:KERNEL32.dll
 0002:00000138       __imp_InitializeCriticalSectionAndSpinCount 0000000180010138     kernel32:KERNEL32.dll
 0002:00000140       __imp_LeaveCriticalSection 0000000180010140     kernel32:KERNEL32.dll
 0002:00000148       __imp_EnterCriticalSection 0000000180010148     kernel32:KERNEL32.dll
 0002:00000150       __imp_WaitNamedPipeW       0000000180010150     kernel32:KERNEL32.dll
 0002:00000158       __imp_GetLastError         0000000180010158     kernel32:KERNEL32.dll
 0002:00000160       __imp_CreateFileW          0000000180010160     kernel32:KERNEL32.dll
 0002:00000168       __imp_GetCurrentDirectoryW 0000000180010168     kernel32:KERNEL32.dll
 0002:00000170       __imp_QueryPerformanceCounter 0000000180010170     kernel32:KERNEL32.dll
 0002:00000178       __imp_LoadLibraryExA       0000000180010178     kernel32:KERNEL32.dll
 0002:00000180       \177KERNEL32_NULL_THUNK_DATA 0000000180010180     kernel32:KERNEL32.dll
 0002:00000188       __imp_?_Xlength_error@std@@YAXPEBD@Z 0000000180010188     msvcprt:MSVCP140.dll
 0002:00000190       __imp_?_Xbad_alloc@std@@YAXXZ 0000000180010190     msvcprt:MSVCP140.dll
 0002:00000198       __imp_?_Xout_of_range@std@@YAXPEBD@Z 0000000180010198     msvcprt:MSVCP140.dll
 0002:000001a0       \177MSVCP140_NULL_THUNK_DATA 00000001800101a0     msvcprt:MSVCP140.dll
 0002:000001a8       __imp_SHGetKnownFolderPath 00000001800101a8     shell32:SHELL32.dll
 0002:000001b0       \177SHELL32_NULL_THUNK_DATA 00000001800101b0     shell32:SHELL32.dll
 0002:000001b8       __imp_PathCombineW         00000001800101b8     SimConnect:SHLWAPI.dll
 0002:000001c0       \177SHLWAPI_NULL_THUNK_DATA 00000001800101c0     SimConnect:SHLWAPI.dll
 0002:000001c8       __imp_PostMessageW         00000001800101c8     user32:USER32.dll
 0002:000001d0       __imp_FindWindowW          00000001800101d0     user32:USER32.dll
 0002:000001d8       __imp_GetWindowThreadProcessId 00000001800101d8     user32:USER32.dll
 0002:000001e0       __imp_SendMessageW         00000001800101e0     user32:USER32.dll
 0002:000001e8       \177USER32_NULL_THUNK_DATA 00000001800101e8     user32:USER32.dll
 0002:000001f0       __imp_memcpy               00000001800101f0     vcruntime:VCRUNTIME140.dll
 0002:000001f8       __imp_memset               00000001800101f8     vcruntime:VCRUNTIME140.dll
 0002:00000200       __imp___CxxFrameHandler3   0000000180010200     vcruntime:VCRUNTIME140.dll
 0002:00000208       __imp___C_specific_handler 0000000180010208     vcruntime:VCRUNTIME140.dll
 0002:00000210       __imp__purecall            0000000180010210     vcruntime:VCRUNTIME140.dll
 0002:00000218       __imp___std_exception_destroy 0000000180010218     vcruntime:VCRUNTIME140.dll
 0002:00000220       __imp___std_type_info_destroy_list 0000000180010220     vcruntime:VCRUNTIME140.dll
 0002:00000228       __imp__CxxThrowException   0000000180010228     vcruntime:VCRUNTIME140.dll
 0002:00000230       __imp_memmove              0000000180010230     vcruntime:VCRUNTIME140.dll
 0002:00000238       __imp___std_exception_copy 0000000180010238     vcruntime:VCRUNTIME140.dll
 0002:00000240       \177VCRUNTIME140_NULL_THUNK_DATA 0000000180010240     vcruntime:VCRUNTIME140.dll
 0002:00000248       __imp_WSASend              0000000180010248     SimConnect:WS2_32.dll
 0002:00000250       __imp_WSARecv              0000000180010250     SimConnect:WS2_32.dll
 0002:00000258       __imp_WSAGetLastError      0000000180010258     SimConnect:WS2_32.dll
 0002:00000260       __imp_shutdown             0000000180010260     SimConnect:WS2_32.dll
 0002:00000268       __imp_getsockopt           0000000180010268     SimConnect:WS2_32.dll
 0002:00000270       __imp_closesocket          0000000180010270     SimConnect:WS2_32.dll
 0002:00000278       __imp_FreeAddrInfoW        0000000180010278     SimConnect:WS2_32.dll
 0002:00000280       __imp_GetAddrInfoW         0000000180010280     SimConnect:WS2_32.dll
 0002:00000288       __imp_connect              0000000180010288     SimConnect:WS2_32.dll
 0002:00000290       __imp_WSACleanup           0000000180010290     SimConnect:WS2_32.dll
 0002:00000298       __imp_WSAStartup           0000000180010298     SimConnect:WS2_32.dll
 0002:000002a0       __imp_socket               00000001800102a0     SimConnect:WS2_32.dll
 0002:000002a8       __imp_setsockopt           00000001800102a8     SimConnect:WS2_32.dll
 0002:000002b0       \177WS2_32_NULL_THUNK_DATA 00000001800102b0     SimConnect:WS2_32.dll
 0002:000002b8       __imp__wtoi                00000001800102b8     ucrt:api-ms-win-crt-convert-l1-1-0.dll
 0002:000002c0       \177api-ms-win-crt-convert-l1-1-0_NULL_THUNK_DATA 00000001800102c0     ucrt:api-ms-win-crt-convert-l1-1-0.dll
 0002:000002c8       __imp_free                 00000001800102c8     ucrt:api-ms-win-crt-heap-l1-1-0.dll
 0002:000002d0       __imp_malloc               00000001800102d0     ucrt:api-ms-win-crt-heap-l1-1-0.dll
 0002:000002d8       __imp__callnewh            00000001800102d8     ucrt:api-ms-win-crt-heap-l1-1-0.dll
 0002:000002e0       \177api-ms-win-crt-heap-l1-1-0_NULL_THUNK_DATA 00000001800102e0     ucrt:api-ms-win-crt-heap-l1-1-0.dll
 0002:000002e8       __imp__initterm_e          00000001800102e8     ucrt:api-ms-win-crt-runtime-l1-1-0.dll
 0002:000002f0       __imp__invalid_parameter_noinfo_noreturn 00000001800102f0     ucrt:api-ms-win-crt-runtime-l1-1-0.dll
 0002:000002f8       __imp__initterm            00000001800102f8     ucrt:api-ms-win-crt-runtime-l1-1-0.dll
 0002:00000300       __imp__seh_filter_dll      0000000180010300     ucrt:api-ms-win-crt-runtime-l1-1-0.dll
 0002:00000308       __imp__configure_narrow_argv 0000000180010308     ucrt:api-ms-win-crt-runtime-l1-1-0.dll
 0002:00000310       __imp__initialize_narrow_environment 0000000180010310     ucrt:api-ms-win-crt-runtime-l1-1-0.dll
 0002:00000318       __imp__initialize_onexit_table 0000000180010318     ucrt:api-ms-win-crt-runtime-l1-1-0.dll
 0002:00000320       __imp__register_onexit_function 0000000180010320     ucrt:api-ms-win-crt-runtime-l1-1-0.dll
 0002:00000328       __imp__cexit               0000000180010328     ucrt:api-ms-win-crt-runtime-l1-1-0.dll
 0002:00000330       __imp__crt_atexit          0000000180010330     ucrt:api-ms-win-crt-runtime-l1-1-0.dll
 0002:00000338       __imp__execute_onexit_table 0000000180010338     ucrt:api-ms-win-crt-runtime-l1-1-0.dll
 0002:00000340       \177api-ms-win-crt-runtime-l1-1-0_NULL_THUNK_DATA 0000000180010340     ucrt:api-ms-win-crt-runtime-l1-1-0.dll
 0002:00000348       __imp___stdio_common_vswprintf 0000000180010348     ucrt:api-ms-win-crt-stdio-l1-1-0.dll
 0002:00000350       __imp___stdio_common_vfprintf 0000000180010350     ucrt:api-ms-win-crt-stdio-l1-1-0.dll
 0002:00000358       __imp___stdio_common_vsprintf 0000000180010358     ucrt:api-ms-win-crt-stdio-l1-1-0.dll
 0002:00000360       __imp___acrt_iob_func      0000000180010360     ucrt:api-ms-win-crt-stdio-l1-1-0.dll
 0002:00000368       \177api-ms-win-crt-stdio-l1-1-0_NULL_THUNK_DATA 0000000180010368     ucrt:api-ms-win-crt-stdio-l1-1-0.dll
 0002:00000370       __imp__stricmp             0000000180010370     ucrt:api-ms-win-crt-string-l1-1-0.dll
 0002:00000378       \177api-ms-win-crt-string-l1-1-0_NULL_THUNK_DATA 0000000180010378     ucrt:api-ms-win-crt-string-l1-1-0.dll
 0002:00000380       __imp_CoTaskMemFree        0000000180010380     ole32:ole32.dll
 0002:00000388       \177ole32_NULL_THUNK_DATA  0000000180010388     ole32:ole32.dll
 0002:00000390       __guard_check_icall_fptr   0000000180010390     MSVCRT:guard_support.obj
 0002:00000398       __guard_dispatch_icall_fptr 0000000180010398     MSVCRT:guard_support.obj
 0002:000003a0       __xc_a                     00000001800103a0     MSVCRT:initializers.obj
 0002:000003d8       _register_addon_           00000001800103d8     addon.obj
 0002:000003e0       __xc_z                     00000001800103e0     MSVCRT:initializers.obj
 0002:000003e8       __xi_a                     00000001800103e8     MSVCRT:initializers.obj
 0002:000003f0       __xi_z                     00000001800103f0     MSVCRT:initializers.obj
 0002:000003f8       __xp_a                     00000001800103f8     MSVCRT:initializers.obj
 0002:00000400       __xp_z                     0000000180010400     MSVCRT:initializers.obj
 0002:00000408       __xt_a                     0000000180010408     MSVCRT:initializers.obj
 0002:00000410       __xt_z                     0000000180010410     MSVCRT:initializers.obj
 0002:00000420       __sz_node_exe              0000000180010420     node:node.exe
 0002:00000760       ??_7QueueItem@@6B@         0000000180010760     SimConnect:commClient.obj
 0002:00000768       ??_C@_11LOCGONAA@?$AA?$AA@ 0000000180010768     SimConnect:commClient.obj
 0002:00000770       ??_7ClientClient@@6B@      0000000180010770     SimConnect:commClient.obj
 0002:00000798       ??_C@_1BC@HMOEBAG@?$AAF?$AAS?$AA9?$AA8?$AAM?$AAA?$AAI?$AAN?$AA?$AA@ 0000000180010798     SimConnect:commClient.obj
 0002:000007b0       ??_C@_1EK@MFHABGDI@?$AAS?$AAO?$AAF?$AAT?$AAW?$AAA?$AAR?$AAE?$AA?2?$AAL?$AAo?$AAc?$AAk?$AAh?$AAe?$AAe?$AAd?$AA?5?$AAM?$AAa?$AAr?$AAt?$AAi?$AAn?$AA?2?$AAP?$AAr?$AAe?$AAp?$AAa?$AAr?$AA3@ 00000001800107b0     SimConnect:commClient.obj
 0002:00000800       ??_C@_1BC@FPNDAGHF@?$AAP?$AAr?$AAo?$AAt?$AAo?$AAc?$AAo?$AAl?$AA?$AA@ 0000000180010800     SimConnect:commClient.obj
 0002:00000818       ??_C@_1BA@LDPMAPOD@?$AAA?$AAd?$AAd?$AAr?$AAe?$AAs?$AAs?$AA?$AA@ 0000000180010818     SimConnect:commClient.obj
 0002:00000828       ??_C@_19OBNDINH@?$AAP?$AAo?$AAr?$AAt?$AA?$AA@ 0000000180010828     SimConnect:commClient.obj
 0002:00000838       ??_C@_1BO@ILEGCKFN@?$AAM?$AAa?$AAx?$AAR?$AAe?$AAc?$AAe?$AAi?$AAv?$AAe?$AAS?$AAi?$AAz?$AAe?$AA?$AA@ 0000000180010838     SimConnect:commClient.obj
 0002:00000858       ??_C@_1BK@JHNHAGPC@?$AAD?$AAi?$AAs?$AAa?$AAb?$AAl?$AAe?$AAN?$AAa?$AAg?$AAl?$AAe?$AA?$AA@ 0000000180010858     SimConnect:commClient.obj
 0002:00000898       ??_7CClient@@6B@           0000000180010898     SimConnect:client.obj
 0002:000008c0       ??_C@_0BN@DLLMNLAE@CreateEvent?5failed?5with?5?$CFd?4?6?$AA@ 00000001800108c0     SimConnect:client.obj
 0002:000008e0       _pRawDllMain               00000001800108e0     MSVCRT:dll_dllmain.obj
 0002:000008e0       _pDefaultRawDllMain        00000001800108e0     MSVCRT:dll_dllmain.obj
 0002:00000900       ??_7exception@std@@6B@     0000000180010900     MSVCRT:throw_bad_alloc.obj
 0002:00000910       ??_C@_0BC@EOODALEL@Unknown?5exception?$AA@ 0000000180010910     MSVCRT:throw_bad_alloc.obj
 0002:00000930       ??_7bad_alloc@std@@6B@     0000000180010930     MSVCRT:throw_bad_alloc.obj
 0002:00000940       ??_C@_0P@GHFPNOJB@bad?5allocation?$AA@ 0000000180010940     MSVCRT:throw_bad_alloc.obj
 0002:00000958       ??_7bad_array_new_length@std@@6B@ 0000000180010958     MSVCRT:throw_bad_alloc.obj
 0002:00000968       ??_C@_0BF@KINCDENJ@bad?5array?5new?5length?$AA@ 0000000180010968     MSVCRT:throw_bad_alloc.obj
 0002:00000988       ??_7type_info@@6B@         0000000180010988     MSVCRT:std_type_info_static.obj
 0002:00000990       FOLDERID_PublicDocuments   0000000180010990     shell32:shguid.obj
 0002:000009a0       FOLDERID_Documents         00000001800109a0     shell32:shguid.obj
 0002:000009b0       ??_C@_1BK@DBDEIDLH@?$AAK?$AAE?$AAR?$AAN?$AAE?$AAL?$AA3?$AA2?$AA?4?$AAD?$AAL?$AAL?$AA?$AA@ 00000001800109b0     DelayImp:delayhlp.obj
 0002:000009d0       ??_C@_0BI@OMNLIJDB@AcquireSRWLockExclusive?$AA@ 00000001800109d0     DelayImp:delayhlp.obj
 0002:000009e8       ??_C@_0BI@HMIEPCNJ@ReleaseSRWLockExclusive?$AA@ 00000001800109e8     DelayImp:delayhlp.obj
 0002:00000a00       __pfnDliFailureHook2       0000000180010a00     DelayImp:delayhk1.obj
 0002:00000a10       _load_config_used          0000000180010a10     MSVCRT:loadcfg.obj
 0002:00000aa8       ??_C@_0BA@JFNIOLAK@string?5too?5long?$AA@ 0000000180010aa8     addon.obj
 0002:00000ab8       ??_C@_0BK@OFFFIOHD@SIMCONNECT_EXCEPTION_NONE?$AA@ 0000000180010ab8     addon.obj
 0002:00000ad8       ??_C@_0BL@KEILIENP@SIMCONNECT_EXCEPTION_ERROR?$AA@ 0000000180010ad8     addon.obj
 0002:00000af8       ??_C@_0CD@FNCDHEOD@SIMCONNECT_EXCEPTION_SIZE_MISMAT@ 0000000180010af8     addon.obj
 0002:00000b20       ??_C@_0CF@HGGDCEEA@SIMCONNECT_EXCEPTION_UNRECOGNIZE@ 0000000180010b20     addon.obj
 0002:00000b48       ??_C@_0BO@JLECPPKN@SIMCONNECT_EXCEPTION_UNOPENED?$AA@ 0000000180010b48     addon.obj
 0002:00000b68       ??_C@_0CG@KEHAHNPD@SIMCONNECT_EXCEPTION_VERSION_MIS@ 0000000180010b68     addon.obj
 0002:00000b90       ??_C@_0CF@BNAECEAF@SIMCONNECT_EXCEPTION_TOO_MANY_GR@ 0000000180010b90     addon.obj
 0002:00000bb8       ??_C@_0CH@GKGELPNJ@SIMCONNECT_EXCEPTION_NAME_UNRECO@ 0000000180010bb8     addon.obj
 0002:00000be0       ??_C@_0CK@OHBCGNJG@SIMCONNECT_EXCEPTION_TOO_MANY_EV@ 0000000180010be0     addon.obj
 0002:00000c10       ??_C@_0CI@LBHBIJML@SIMCONNECT_EXCEPTION_EVENT_ID_DU@ 0000000180010c10     addon.obj
 0002:00000c38       ??_C@_0CD@HAEMMMEE@SIMCONNECT_EXCEPTION_TOO_MANY_MA@ 0000000180010c38     addon.obj
 0002:00000c60       ??_C@_0CG@CCBEJBIC@SIMCONNECT_EXCEPTION_TOO_MANY_OB@ 0000000180010c60     addon.obj
 0002:00000c88       ??_C@_0CH@LEJPEFAG@SIMCONNECT_EXCEPTION_TOO_MANY_RE@ 0000000180010c88     addon.obj
 0002:00000cb0       ??_C@_0CK@NCFIMKCL@SIMCONNECT_EXCEPTION_WEATHER_INV@ 0000000180010cb0     addon.obj
 0002:00000ce0       ??_C@_0CL@OOJNKJPP@SIMCONNECT_EXCEPTION_WEATHER_INV@ 0000000180010ce0     addon.obj
 0002:00000d10       ??_C@_0DH@MMPPCEJK@SIMCONNECT_EXCEPTION_WEATHER_UNA@ 0000000180010d10     addon.obj
 0002:00000d48       ??_C@_0DG@DOIBJPEF@SIMCONNECT_EXCEPTION_WEATHER_UNA@ 0000000180010d48     addon.obj
 0002:00000d80       ??_C@_0DG@CLDJPEPM@SIMCONNECT_EXCEPTION_WEATHER_UNA@ 0000000180010d80     addon.obj
 0002:00000db8       ??_C@_0CH@KMAJHDBO@SIMCONNECT_EXCEPTION_INVALID_DAT@ 0000000180010db8     addon.obj
 0002:00000de0       ??_C@_0CH@EDKHHNEH@SIMCONNECT_EXCEPTION_INVALID_DAT@ 0000000180010de0     addon.obj
 0002:00000e08       ??_C@_0CA@MLMMJOEN@SIMCONNECT_EXCEPTION_DATA_ERROR?$AA@ 0000000180010e08     addon.obj
 0002:00000e28       ??_C@_0CD@MJGCDLIG@SIMCONNECT_EXCEPTION_INVALID_ARR@ 0000000180010e28     addon.obj
 0002:00000e50       ??_C@_0CK@EJEMPPAO@SIMCONNECT_EXCEPTION_CREATE_OBJE@ 0000000180010e50     addon.obj
 0002:00000e80       ??_C@_0DH@BGMPHPAP@SIMCONNECT_EXCEPTION_OPERATION_I@ 0000000180010e80     addon.obj
 0002:00000eb8       ??_C@_0CH@MLNNIPKH@SIMCONNECT_EXCEPTION_ILLEGAL_OPE@ 0000000180010eb8     addon.obj
 0002:00000ee0       ??_C@_0CI@NJDOIHOK@SIMCONNECT_EXCEPTION_ALREADY_SUB@ 0000000180010ee0     addon.obj
 0002:00000f08       ??_C@_0CC@DKBJPOEN@SIMCONNECT_EXCEPTION_INVALID_ENU@ 0000000180010f08     addon.obj
 0002:00000f30       ??_C@_0CG@FNPNNOHN@SIMCONNECT_EXCEPTION_DEFINITION_@ 0000000180010f30     addon.obj
 0002:00000f58       ??_C@_0CC@NCAHMBHG@SIMCONNECT_EXCEPTION_DUPLICATE_I@ 0000000180010f58     addon.obj
 0002:00000f80       ??_C@_0BO@BNACGAOL@SIMCONNECT_EXCEPTION_DATUM_ID?$AA@ 0000000180010f80     addon.obj
 0002:00000fa0       ??_C@_0CD@PECMDJM@SIMCONNECT_EXCEPTION_OUT_OF_BOUN@ 0000000180010fa0     addon.obj
 0002:00000fc8       ??_C@_0CF@BFOBLKMA@SIMCONNECT_EXCEPTION_ALREADY_CRE@ 0000000180010fc8     addon.obj
 0002:00000ff0       ??_C@_0DD@HEFBOGHF@SIMCONNECT_EXCEPTION_OBJECT_OUTS@ 0000000180010ff0     addon.obj
 0002:00001028       ??_C@_0CG@COIEMLE@SIMCONNECT_EXCEPTION_OBJECT_CONT@ 0000000180011028     addon.obj
 0002:00001050       ??_C@_0BP@OHJPCPPA@SIMCONNECT_EXCEPTION_OBJECT_AI?$AA@ 0000000180011050     addon.obj
 0002:00001070       ??_C@_0CA@HCPAEBNG@SIMCONNECT_EXCEPTION_OBJECT_ATC?$AA@ 0000000180011070     addon.obj
 0002:00001090       ??_C@_0CF@IBCEIOBI@SIMCONNECT_EXCEPTION_OBJECT_SCHE@ 0000000180011090     addon.obj
 0002:000010b8       ??_C@_0CI@HLGKOGKM@Unexpected?5message?5received?5?$CIdwI@ 00000001800110b8     addon.obj
 0002:000010e0       ??_C@_06IMJBDBNO@0x?$CF08X?$AA@ 00000001800110e0     addon.obj
 0002:000010e8       ??_C@_0M@DFMOHJNH@dwException?$AA@ 00000001800110e8     addon.obj
 0002:000010f8       ??_C@_08INPAFLIF@dwSendID?$AA@ 00000001800110f8     addon.obj
 0002:00001108       ??_C@_07PEFIGIJL@dwIndex?$AA@ 0000000180011108     addon.obj
 0002:00001110       ??_C@_06JMAGCMCN@cbData?$AA@ 0000000180011110     addon.obj
 0002:00001118       ??_C@_09BILEFMLD@cbVersion?$AA@ 0000000180011118     addon.obj
 0002:00001124       ??_C@_04MEMAJGDJ@name?$AA@ 0000000180011124     addon.obj
 0002:00001130       ??_C@_0M@PCENNPGA@?$CFd?4?$CFd?4?$CFd?4?$CFd?$AA@ 0000000180011130     addon.obj
 0002:00001140       ??_C@_07LKHFMGFB@integer?$AA@ 0000000180011140     addon.obj
 0002:00001148       ??_C@_05KNFBNCOH@float?$AA@ 0000000180011148     addon.obj
 0002:00001150       ??_C@_06ICGJLFIM@string?$AA@ 0000000180011150     addon.obj
 0002:00001158       ??_C@_0BD@CKKONKOF@Trying?5to?5close?4?4?6?$AA@ 0000000180011158     addon.obj
 0002:00001170       ??_C@_0M@NJAMHCEN@Closed?3?5?$CFi?6?$AA@ 0000000180011170     addon.obj
 0002:00001180       ??_C@_08OFJBILFH@altitude?$AA@ 0000000180011180     addon.obj
 0002:00001190       ??_C@_08IPNLHJNB@latitude?$AA@ 0000000180011190     addon.obj
 0002:000011a0       ??_C@_09PHBIEJMN@longitude?$AA@ 00000001800111a0     addon.obj
 0002:000011ac       ??_C@_05NCNFOFLM@pitch?$AA@ 00000001800111ac     addon.obj
 0002:000011b4       ??_C@_04JNPFOIOP@bank?$AA@ 00000001800111b4     addon.obj
 0002:000011c0       ??_C@_07MBJMFGGL@heading?$AA@ 00000001800111c0     addon.obj
 0002:000011c8       ??_C@_08JMFAAICL@onGround?$AA@ 00000001800111c8     addon.obj
 0002:000011d8       ??_C@_08NBKMDLNN@airspeed?$AA@ 00000001800111d8     addon.obj
 0002:000011e8       ??_C@_0BB@IAMFFOJM@Initial?5Position?$AA@ 00000001800111e8     addon.obj
 0002:000011fc       ??_C@_04PMOCAHAA@open?$AA@ 00000001800111fc     addon.obj
 0002:00001204       ??_C@_05LBOHBHFK@close?$AA@ 0000000180011204     addon.obj
 0002:00001210       ??_C@_0BH@FELDDCMG@subscribeToSystemEvent?$AA@ 0000000180011210     addon.obj
 0002:00001228       ??_C@_0BH@PMHECDBL@requestDataOnSimObject?$AA@ 0000000180011228     addon.obj
 0002:00001240       ??_C@_0BD@ELFBGKAB@setDataOnSimObject?$AA@ 0000000180011240     addon.obj
 0002:00001258       ??_C@_0BL@JKLLDNB@setAircraftInitialPosition?$AA@ 0000000180011258     addon.obj
 0002:00001278       ??_C@_0BE@IAOJOLME@transmitClientEvent?$AA@ 0000000180011278     addon.obj
 0002:00001290       ??_C@_0BD@LDBKBAFH@requestSystemState?$AA@ 0000000180011290     addon.obj
 0002:000012a8       ??_C@_0M@PJKEEBIC@?4?4?2addon?4cc?$AA@ 00000001800112a8     addon.obj
 0002:000012b4       ??_C@_05ONJGPJEO@addon?$AA@ 00000001800112b4     addon.obj
 0002:000012c0       ??_C@_0BM@NMJKDPPO@invalid?5vector?$DMT?$DO?5subscript?$AA@ 00000001800112c0     addon.obj
 0002:000012e0       ??_C@_0BD@OLBABOEK@vector?$DMT?$DO?5too?5long?$AA@ 00000001800112e0     addon.obj
 0002:000012f8       ??_C@_0BI@CFPLBAOH@invalid?5string?5position?$AA@ 00000001800112f8     addon.obj
 0002:00001310       ??_C@_0BE@JONHPENG@map?1set?$DMT?$DO?5too?5long?$AA@ 0000000180011310     addon.obj
 0002:00001328       ??_7AsyncWorker@Nan@@6B@   0000000180011328     addon.obj
 0002:00001358       ??_7DispatchWorker@@6B@    0000000180011358     addon.obj
 0002:00001390       __pfnDliNotifyHook2        0000000180011390     win_delay_load_hook.obj
 0002:00001398       ??_C@_08HCOMDCCD@iojs?4exe?$AA@ 0000000180011398     win_delay_load_hook.obj
 0002:000013a8       ??_C@_08JDDNMFDB@node?4exe?$AA@ 00000001800113a8     win_delay_load_hook.obj
 0002:000013c0       __xmm@00000008000000020000000400000001 00000001800113c0     addon.obj
 0002:000013d0       __xmm@00000008000000040000000400000003 00000001800113d0     addon.obj
 0002:000013e0       __xmm@00000020000000060000000800000005 00000001800113e0     addon.obj
 0002:000013f0       __xmm@00000080000000080000004000000007 00000001800113f0     addon.obj
 0002:00001400       __xmm@000001040000000a0000010000000009 0000000180011400     addon.obj
 0002:00001468       ??_R4exception@std@@6B@    0000000180011468     MSVCRT:throw_bad_alloc.obj
 0002:00001490       ??_R3exception@std@@8      0000000180011490     MSVCRT:throw_bad_alloc.obj
 0002:000014a8       ??_R2exception@std@@8      00000001800114a8     MSVCRT:throw_bad_alloc.obj
 0002:000014b8       ??_R1A@?0A@EA@exception@std@@8 00000001800114b8     MSVCRT:throw_bad_alloc.obj
 0002:000014e0       ??_R4bad_alloc@std@@6B@    00000001800114e0     MSVCRT:throw_bad_alloc.obj
 0002:00001508       ??_R3bad_alloc@std@@8      0000000180011508     MSVCRT:throw_bad_alloc.obj
 0002:00001520       ??_R2bad_alloc@std@@8      0000000180011520     MSVCRT:throw_bad_alloc.obj
 0002:00001538       ??_R1A@?0A@EA@bad_alloc@std@@8 0000000180011538     MSVCRT:throw_bad_alloc.obj
 0002:00001560       ??_R4bad_array_new_length@std@@6B@ 0000000180011560     MSVCRT:throw_bad_alloc.obj
 0002:00001588       ??_R3bad_array_new_length@std@@8 0000000180011588     MSVCRT:throw_bad_alloc.obj
 0002:000015a0       ??_R2bad_array_new_length@std@@8 00000001800115a0     MSVCRT:throw_bad_alloc.obj
 0002:000015c0       ??_R1A@?0A@EA@bad_array_new_length@std@@8 00000001800115c0     MSVCRT:throw_bad_alloc.obj
 0002:000015e8       ??_R4type_info@@6B@        00000001800115e8     MSVCRT:std_type_info_static.obj
 0002:00001610       ??_R3type_info@@8          0000000180011610     MSVCRT:std_type_info_static.obj
 0002:00001628       ??_R2type_info@@8          0000000180011628     MSVCRT:std_type_info_static.obj
 0002:00001638       ??_R1A@?0A@EA@type_info@@8 0000000180011638     MSVCRT:std_type_info_static.obj
 0002:00001a18       __rtc_iaa                  0000000180011a18     MSVCRT:_initsect_.obj
 0002:00001a20       __rtc_izz                  0000000180011a20     MSVCRT:_initsect_.obj
 0002:00001a28       __rtc_taa                  0000000180011a28     MSVCRT:_initsect_.obj
 0002:00001a30       __rtc_tzz                  0000000180011a30     MSVCRT:_initsect_.obj
 0002:00002a68       _TI2?AVbad_alloc@std@@     0000000180012a68     MSVCRT:throw_bad_alloc.obj
 0002:00002a88       _CTA2?AVbad_alloc@std@@    0000000180012a88     MSVCRT:throw_bad_alloc.obj
 0002:00002aa0       _CT??_R0?AVbad_alloc@std@@@8??0bad_alloc@std@@QEAA@AEBV01@@Z24 0000000180012aa0     MSVCRT:throw_bad_alloc.obj
 0002:00002ac8       _CT??_R0?AVexception@std@@@8??0exception@std@@QEAA@AEBV01@@Z24 0000000180012ac8     MSVCRT:throw_bad_alloc.obj
 0002:00002af0       _TI3?AVbad_array_new_length@std@@ 0000000180012af0     MSVCRT:throw_bad_alloc.obj
 0002:00002b10       _CTA3?AVbad_array_new_length@std@@ 0000000180012b10     MSVCRT:throw_bad_alloc.obj
 0002:00002b30       _CT??_R0?AVbad_array_new_length@std@@@8??0bad_array_new_length@std@@QEAA@AEBV01@@Z24 0000000180012b30     MSVCRT:throw_bad_alloc.obj
 0002:00002b54       __DELAY_IMPORT_DESCRIPTOR_node_exe 0000000180012b54     node:node.exe
 0002:00002b74       __NULL_DELAY_IMPORT_DESCRIPTOR 0000000180012b74     node:node.exe
 0002:00002cf8       \177node_NULL_THUNK_DATA_DLN 0000000180012cf8     node:node.exe
 0002:00003698       \177node_NULL_THUNK_DATA_DLB 0000000180013698     node:node.exe
 0002:00003858       __IMPORT_DESCRIPTOR_KERNEL32 0000000180013858     kernel32:KERNEL32.dll
 0002:0000386c       __IMPORT_DESCRIPTOR_WS2_32 000000018001386c     SimConnect:WS2_32.dll
 0002:00003880       __IMPORT_DESCRIPTOR_SHLWAPI 0000000180013880     SimConnect:SHLWAPI.dll
 0002:00003894       __IMPORT_DESCRIPTOR_MSVCP140 0000000180013894     msvcprt:MSVCP140.dll
 0002:000038a8       __IMPORT_DESCRIPTOR_VCRUNTIME140 00000001800138a8     vcruntime:VCRUNTIME140.dll
 0002:000038bc       __IMPORT_DESCRIPTOR_api-ms-win-crt-stdio-l1-1-0 00000001800138bc     ucrt:api-ms-win-crt-stdio-l1-1-0.dll
 0002:000038d0       __IMPORT_DESCRIPTOR_api-ms-win-crt-runtime-l1-1-0 00000001800138d0     ucrt:api-ms-win-crt-runtime-l1-1-0.dll
 0002:000038e4       __IMPORT_DESCRIPTOR_api-ms-win-crt-string-l1-1-0 00000001800138e4     ucrt:api-ms-win-crt-string-l1-1-0.dll
 0002:000038f8       __IMPORT_DESCRIPTOR_api-ms-win-crt-convert-l1-1-0 00000001800138f8     ucrt:api-ms-win-crt-convert-l1-1-0.dll
 0002:0000390c       __IMPORT_DESCRIPTOR_api-ms-win-crt-heap-l1-1-0 000000018001390c     ucrt:api-ms-win-crt-heap-l1-1-0.dll
 0002:00003920       __IMPORT_DESCRIPTOR_USER32 0000000180013920     user32:USER32.dll
 0002:00003934       __IMPORT_DESCRIPTOR_ADVAPI32 0000000180013934     advapi32:ADVAPI32.dll
 0002:00003948       __IMPORT_DESCRIPTOR_SHELL32 0000000180013948     shell32:SHELL32.dll
 0002:0000395c       __IMPORT_DESCRIPTOR_ole32  000000018001395c     ole32:ole32.dll
 0002:00003970       __NULL_IMPORT_DESCRIPTOR   0000000180013970     kernel32:KERNEL32.dll
 0003:00000000       __scrt_native_dllmain_reason 0000000180015000     MSVCRT:utility.obj
 0003:00000004       _fltused                   0000000180015004     MSVCRT:dllsupp.obj
 0003:00000010       __security_cookie          0000000180015010     MSVCRT:gs_cookie.obj
 0003:00000018       __security_cookie_complement 0000000180015018     MSVCRT:gs_cookie.obj
 0003:00000020       __isa_available            0000000180015020     MSVCRT:_cpu_disp_.obj
 0003:00000024       __isa_enabled              0000000180015024     MSVCRT:_cpu_disp_.obj
 0003:00000028       __memcpy_nt_iters          0000000180015028     MSVCRT:_cpu_disp_.obj
 0003:00000030       __scrt_ucrt_dll_is_in_use  0000000180015030     MSVCRT:ucrt_stubs.obj
 0003:00000080       ??_R0?AVbad_alloc@std@@@8  0000000180015080     MSVCRT:throw_bad_alloc.obj
 0003:000000a8       ??_R0?AVexception@std@@@8  00000001800150a8     MSVCRT:throw_bad_alloc.obj
 0003:000000d0       ??_R0?AVbad_array_new_length@std@@@8 00000001800150d0     MSVCRT:throw_bad_alloc.obj
 0003:00000100       ??_R0?AVtype_info@@@8      0000000180015100     MSVCRT:std_type_info_static.obj
 0003:00000120       __imp_uv_sem_wait          0000000180015120     node:node.exe
 0003:00000128       __imp_uv_queue_work        0000000180015128     node:node.exe
 0003:00000130       __imp_?Global@Context@v8@@QEAA?AV?$Local@VObject@v8@@@2@XZ 0000000180015130     node:node.exe
 0003:00000138       __imp_?New@Integer@v8@@SA?AV?$Local@VInteger@v8@@@2@PEAVIsolate@2@H@Z 0000000180015138     node:node.exe
 0003:00000140       __imp_?GetCurrentContext@Isolate@v8@@QEAA?AV?$Local@VContext@v8@@@2@XZ 0000000180015140     node:node.exe
 0003:00000148       __imp_?GetCurrent@Isolate@v8@@SAPEAV12@XZ 0000000180015148     node:node.exe
 0003:00000150       __imp_?CreateHandle@HandleScope@v8@@KAPEAPEAVObject@internal@2@PEAVIsolate@42@PEAV342@@Z 0000000180015150     node:node.exe
 0003:00000158       __imp_??1HandleScope@v8@@QEAA@XZ 0000000180015158     node:node.exe
 0003:00000160       __imp_??0HandleScope@v8@@QEAA@PEAVIsolate@1@@Z 0000000180015160     node:node.exe
 0003:00000168       __imp_?Error@Exception@v8@@SA?AV?$Local@VValue@v8@@@2@V?$Local@VString@v8@@@2@@Z 0000000180015168     node:node.exe
 0003:00000170       __imp_?New@Array@v8@@SA?AV?$Local@VArray@v8@@@2@PEAVIsolate@2@H@Z 0000000180015170     node:node.exe
 0003:00000178       __imp_?Length@Array@v8@@QEBAIXZ 0000000180015178     node:node.exe
 0003:00000180       __imp_?GetFunction@FunctionTemplate@v8@@QEAA?AV?$Local@VFunction@v8@@@2@XZ 0000000180015180     node:node.exe
 0003:00000188       __imp_?New@FunctionTemplate@v8@@SA?AV?$Local@VFunctionTemplate@v8@@@2@PEAVIsolate@2@P6AXAEBV?$FunctionCallbackInfo@VValue@v8@@@2@@ZV?$Local@VValue@v8@@@2@V?$Local@VSignature@v8@@@2@HW4ConstructorBehavior@2@@Z 0000000180015188     node:node.exe
 0003:00000190       __imp_?ToLocalEmpty@V8@v8@@CAXXZ 0000000180015190     node:node.exe
 0003:00000198       __imp_?DisposeGlobal@V8@v8@@CAXPEAPEAVObject@internal@2@@Z 0000000180015198     node:node.exe
 0003:000001a0       __imp_?GlobalizeReference@V8@v8@@CAPEAPEAVObject@internal@2@PEAVIsolate@42@PEAPEAV342@@Z 00000001800151a0     node:node.exe
 0003:000001a8       __imp_?Int32Value@Value@v8@@QEBAHXZ 00000001800151a8     node:node.exe
 0003:000001b0       __imp_?IntegerValue@Value@v8@@QEBA_JXZ 00000001800151b0     node:node.exe
 0003:000001b8       __imp_?NumberValue@Value@v8@@QEBANXZ 00000001800151b8     node:node.exe
 0003:000001c0       __imp_?ToObject@Value@v8@@QEBA?AV?$Local@VObject@v8@@@2@PEAVIsolate@2@@Z 00000001800151c0     node:node.exe
 0003:000001c8       __imp_?IsArray@Value@v8@@QEBA_NXZ 00000001800151c8     node:node.exe
 0003:000001d0       __imp_?Escape@EscapableHandleScope@v8@@AEAAPEAPEAVObject@internal@2@PEAPEAV342@@Z 00000001800151d0     node:node.exe
 0003:000001d8       __imp_??0EscapableHandleScope@v8@@QEAA@PEAVIsolate@1@@Z 00000001800151d8     node:node.exe
 0003:000001e0       __imp_??1Utf8Value@String@v8@@QEAA@XZ 00000001800151e0     node:node.exe
 0003:000001e8       __imp_??0Utf8Value@String@v8@@QEAA@V?$Local@VValue@v8@@@2@@Z 00000001800151e8     node:node.exe
 0003:000001f0       __imp_?NewFromOneByte@String@v8@@SA?AV?$Local@VString@v8@@@2@PEAVIsolate@2@PEBEW4NewStringType@12@H@Z 00000001800151f0     node:node.exe
 0003:000001f8       __imp_?NewFromUtf8@String@v8@@SA?AV?$Local@VString@v8@@@2@PEAVIsolate@2@PEBDW4NewStringType@12@H@Z 00000001800151f8     node:node.exe
 0003:00000200       __imp_?NewFromUtf8@String@v8@@SA?AV?$MaybeLocal@VString@v8@@@2@PEAVIsolate@2@PEBDW4NewStringType@2@H@Z 0000000180015200     node:node.exe
 0003:00000208       __imp_?New@Number@v8@@SA?AV?$Local@VNumber@v8@@@2@PEAVIsolate@2@N@Z 0000000180015208     node:node.exe
 0003:00000210       __imp_?New@Object@v8@@SA?AV?$Local@VObject@v8@@@2@PEAVIsolate@2@@Z 0000000180015210     node:node.exe
 0003:00000218       __imp_?HasOwnProperty@Object@v8@@QEAA_NV?$Local@VString@v8@@@2@@Z 0000000180015218     node:node.exe
 0003:00000220       __imp_?Get@Object@v8@@QEAA?AV?$Local@VValue@v8@@@2@V32@@Z 0000000180015220     node:node.exe
 0003:00000228       __imp_?Get@Object@v8@@QEAA?AV?$Local@VValue@v8@@@2@I@Z 0000000180015228     node:node.exe
 0003:00000230       __imp_?Set@Object@v8@@QEAA_NV?$Local@VValue@v8@@@2@0@Z 0000000180015230     node:node.exe
 0003:00000238       __imp_?SetName@Function@v8@@QEAAXV?$Local@VString@v8@@@2@@Z 0000000180015238     node:node.exe
 0003:00000240       __imp_node_module_register 0000000180015240     node:node.exe
 0003:00000248       __imp_?MakeCallback@node@@YA?AV?$Local@VValue@v8@@@v8@@PEAVIsolate@3@V?$Local@VObject@v8@@@3@V?$Local@VFunction@v8@@@3@HPEAV23@@Z 0000000180015248     node:node.exe
 0003:00000250       __imp_uv_sem_post          0000000180015250     node:node.exe
 0003:00000258       __imp_uv_async_send        0000000180015258     node:node.exe
 0003:00000260       __imp_uv_async_init        0000000180015260     node:node.exe
 0003:00000268       __imp_uv_sem_init          0000000180015268     node:node.exe
 0003:00000270       __imp_uv_default_loop      0000000180015270     node:node.exe
 0003:00000278       __imp_?ToString@Value@v8@@QEBA?AV?$Local@VString@v8@@@2@XZ 0000000180015278     node:node.exe
 0003:00000280       \177node_NULL_THUNK_DATA_DLA 0000000180015280     node:node.exe
 0003:00000290       __hmod__node_exe           0000000180015290     node:node.exe
 0003:00000298       ?g_bTestReceived@@3_NA     0000000180015298     SimConnect:SimConnectClient.obj
 0003:000002a0       ?g_iStage1@@3T_LARGE_INTEGER@@A 00000001800152a0     SimConnect:SimConnectClient.obj
 0003:000002a8       ?g_iStage2@@3T_LARGE_INTEGER@@A 00000001800152a8     SimConnect:SimConnectClient.obj
 0003:000002b0       ?m_ClientCount@ClientClient@@2JA 00000001800152b0     SimConnect:commClient.obj
 0003:000002b4       ?m_bStarted@ClientClient@@2_NA 00000001800152b4     SimConnect:commClient.obj
 0003:000002b5       ?m_bIPv6@ClientClient@@2_NA 00000001800152b5     SimConnect:commClient.obj
 0003:000002b8       ?m_pHeadClient@ClientClient@@2PEAV1@EA 00000001800152b8     SimConnect:commClient.obj
 0003:000002c0       ?m_pTailClient@ClientClient@@2PEAV1@EA 00000001800152c0     SimConnect:commClient.obj
 0003:000002f0       ?s_nSessionID@CClient@@0HA 00000001800152f0     SimConnect:client.obj
 0003:000002f4       ?nClients@CClient@@0IA     00000001800152f4     SimConnect:client.obj
 0003:000002f8       ?bError@CClient@@0JC       00000001800152f8     SimConnect:client.obj
 0003:000002fc       ?nID@CClient@@2HA          00000001800152fc     SimConnect:client.obj
 0003:00000300       __scrt_current_native_startup_state 0000000180015300     MSVCRT:utility.obj
 0003:00000308       __scrt_native_startup_lock 0000000180015308     MSVCRT:utility.obj
 0003:000008c0       __favor                    00000001800158c0     MSVCRT:_cpu_disp_.obj
 0003:000008c4       __scrt_debugger_hook_flag  00000001800158c4     MSVCRT:utility_desktop.obj
 0003:000008d0       ?__type_info_root_node@@3U__type_info_node@@A 00000001800158d0     MSVCRT:tncleanup.obj
 0003:000008e0       ?_OptionsStorage@?1??__local_stdio_scanf_options@@9@4_KA 00000001800158e0     MSVCRT:default_local_stdio_options.obj
 0003:000008e8       ?DloadKernel32@@3PEAUHINSTANCE__@@EA 00000001800158e8     DelayImp:delayhlp.obj
 0003:000008f0       ?DloadAcquireSRWLockExclusive@@3P6AXPEA_K@ZEA 00000001800158f0     DelayImp:delayhlp.obj
 0003:000008f8       ?DloadReleaseSRWLockExclusive@@3P6AXPEA_K@ZEA 00000001800158f8     DelayImp:delayhlp.obj
 0003:00000900       ?DloadSrwLock@@3_KA        0000000180015900     DelayImp:delayhlp.obj
 0003:00000908       ?DloadSectionLockCount@@3KA 0000000180015908     DelayImp:delayhlp.obj
 0003:0000090c       ?DloadSectionOldProtection@@3KA 000000018001590c     DelayImp:delayhlp.obj
 0003:00000910       ?DloadSectionCommitPermanent@@3KA 0000000180015910     DelayImp:delayhlp.obj
 0003:00000920       ?eventIdCounter@@3HA       0000000180015920     addon.obj
 0003:00000924       ?requestIdCounter@@3HA     0000000180015924     addon.obj
 0003:00000928       ?errorCallback@@3PEAVCallback@Nan@@EA 0000000180015928     addon.obj
 0003:00000930       ?loop@@3PEAUuv_loop_s@@EA  0000000180015930     addon.obj
 0003:00000938       ?sem@@3PEAXEA              0000000180015938     addon.obj
 0003:00000940       ?ghSimConnect@@3PEAXEA     0000000180015940     addon.obj
 0003:00000948       ?quitEventId@@3HA          0000000180015948     addon.obj
 0003:0000094c       ?defineIdCounter@@3HA      000000018001594c     addon.obj
 0003:00000950       ?openEventId@@3HA          0000000180015950     addon.obj
 0003:00000954       ?exceptionEventId@@3HA     0000000180015954     addon.obj
 0003:00000960       ?async@@3Uuv_async_s@@A    0000000180015960     addon.obj
 0003:00000a40       ?exceptionNames@@3V?$map@W4SIMCONNECT_EXCEPTION@@PEBDU?$less@W4SIMCONNECT_EXCEPTION@@@std@@V?$allocator@U?$pair@$$CBW4SIMCONNECT_EXCEPTION@@PEBD@std@@@3@@std@@A 0000000180015a40     addon.obj
 0003:00000a50       ?dataRequests@@3V?$map@HUDataRequest@@U?$less@H@std@@V?$allocator@U?$pair@$$CBHUDataRequest@@@std@@@3@@std@@A 0000000180015a50     addon.obj
 0003:00000a60       ?systemStateCallbacks@@3V?$map@HPEAVCallback@Nan@@U?$less@H@std@@V?$allocator@U?$pair@$$CBHPEAVCallback@Nan@@@std@@@4@@std@@A 0000000180015a60     addon.obj
 0003:00000a70       ?systemEventCallbacks@@3V?$map@HPEAVCallback@Nan@@U?$less@H@std@@V?$allocator@U?$pair@$$CBHPEAVCallback@Nan@@@std@@@4@@std@@A 0000000180015a70     addon.obj
 0003:00000a80       ?sizeMap@@3V?$map@W4SIMCONNECT_DATATYPE@@HU?$less@W4SIMCONNECT_DATATYPE@@@std@@V?$allocator@U?$pair@$$CBW4SIMCONNECT_DATATYPE@@H@std@@@3@@std@@A 0000000180015a80     addon.obj
 0003:00000a90       ?_OptionsStorage@?1??__local_stdio_printf_options@@9@4_KA 0000000180015a90     addon.obj
 0003:00000a98       __dyn_tls_init_callback    0000000180015a98     <common>

 entry point at        0001:0000d6c8

 Static symbols

 0000:fffe6000       .debug$S                   0000000180000000     node:node.exe
 0000:fffe6000       .debug$S                   0000000180000000     ucrt:api-ms-win-crt-convert-l1-1-0.dll
 0000:fffe6000       .debug$S                   0000000180000000     ucrt:api-ms-win-crt-heap-l1-1-0.dll
 0000:fffe6000       .debug$S                   0000000180000000     ucrt:api-ms-win-crt-heap-l1-1-0.dll
 0000:fffe6000       .debug$S                   0000000180000000     ucrt:api-ms-win-crt-heap-l1-1-0.dll
 0000:fffe6000       .debug$S                   0000000180000000     ucrt:api-ms-win-crt-runtime-l1-1-0.dll
 0000:fffe6000       .debug$S                   0000000180000000     ucrt:api-ms-win-crt-runtime-l1-1-0.dll
 0000:fffe6000       .debug$S                   0000000180000000     node-simconnect.exp
 0000:fffe6000       .debug$S                   0000000180000000     kernel32:KERNEL32.dll
 0000:fffe6000       .debug$S                   0000000180000000     kernel32:KERNEL32.dll
 0000:fffe6000       .debug$S                   0000000180000000     kernel32:KERNEL32.dll
 0000:fffe6000       .debug$S                   0000000180000000     kernel32:KERNEL32.dll
 0000:fffe6000       .debug$S                   0000000180000000     kernel32:KERNEL32.dll
 0000:fffe6000       .debug$S                   0000000180000000     kernel32:KERNEL32.dll
 0000:fffe6000       .debug$S                   0000000180000000     kernel32:KERNEL32.dll
 0000:fffe6000       .debug$S                   0000000180000000     kernel32:KERNEL32.dll
 0000:fffe6000       .debug$S                   0000000180000000     kernel32:KERNEL32.dll
 0000:fffe6000       .debug$S                   0000000180000000     kernel32:KERNEL32.dll
 0000:fffe6000       .debug$S                   0000000180000000     kernel32:KERNEL32.dll
 0000:fffe6000       .debug$S                   0000000180000000     ucrt:api-ms-win-crt-runtime-l1-1-0.dll
 0000:fffe6000       .debug$S                   0000000180000000     ucrt:api-ms-win-crt-runtime-l1-1-0.dll
 0000:fffe6000       .debug$S                   0000000180000000     ucrt:api-ms-win-crt-runtime-l1-1-0.dll
 0000:fffe6000       .debug$S                   0000000180000000     ucrt:api-ms-win-crt-runtime-l1-1-0.dll
 0000:fffe6000       .debug$S                   0000000180000000     ucrt:api-ms-win-crt-runtime-l1-1-0.dll
 0000:fffe6000       .debug$S                   0000000180000000     ucrt:api-ms-win-crt-runtime-l1-1-0.dll
 0000:fffe6000       .debug$S                   0000000180000000     ucrt:api-ms-win-crt-runtime-l1-1-0.dll
 0000:fffe6000       .debug$S                   0000000180000000     ucrt:api-ms-win-crt-runtime-l1-1-0.dll
 0000:fffe6000       .debug$S                   0000000180000000     ucrt:api-ms-win-crt-runtime-l1-1-0.dll
 0000:fffe6000       .debug$S                   0000000180000000     ucrt:api-ms-win-crt-runtime-l1-1-0.dll
 0000:fffe6000       .debug$S                   0000000180000000     ucrt:api-ms-win-crt-runtime-l1-1-0.dll
 0000:fffe6000       .debug$S                   0000000180000000     ucrt:api-ms-win-crt-stdio-l1-1-0.dll
 0000:fffe6000       .debug$S                   0000000180000000     ucrt:api-ms-win-crt-stdio-l1-1-0.dll
 0000:fffe6000       .debug$S                   0000000180000000     ucrt:api-ms-win-crt-stdio-l1-1-0.dll
 0000:fffe6000       .debug$S                   0000000180000000     ucrt:api-ms-win-crt-stdio-l1-1-0.dll
 0000:fffe6000       .debug$S                   0000000180000000     ucrt:api-ms-win-crt-string-l1-1-0.dll
 0000:fffe6000       .debug$S                   0000000180000000     vcruntime:VCRUNTIME140.dll
 0000:fffe6000       .debug$S                   0000000180000000     vcruntime:VCRUNTIME140.dll
 0000:fffe6000       .debug$S                   0000000180000000     vcruntime:VCRUNTIME140.dll
 0000:fffe6000       .debug$S                   0000000180000000     vcruntime:VCRUNTIME140.dll
 0000:fffe6000       .debug$S                   0000000180000000     vcruntime:VCRUNTIME140.dll
 0000:fffe6000       .debug$S                   0000000180000000     vcruntime:VCRUNTIME140.dll
 0000:fffe6000       .debug$S                   0000000180000000     vcruntime:VCRUNTIME140.dll
 0000:fffe6000       .debug$S                   0000000180000000     vcruntime:VCRUNTIME140.dll
 0000:fffe6000       .debug$S                   0000000180000000     vcruntime:VCRUNTIME140.dll
 0000:fffe6000       .debug$S                   0000000180000000     vcruntime:VCRUNTIME140.dll
 0000:fffe6000       .debug$S                   0000000180000000     kernel32:KERNEL32.dll
 0000:fffe6000       .debug$S                   0000000180000000     kernel32:KERNEL32.dll
 0000:fffe6000       .debug$S                   0000000180000000     kernel32:KERNEL32.dll
 0000:fffe6000       .debug$S                   0000000180000000     kernel32:KERNEL32.dll
 0000:fffe6000       .debug$S                   0000000180000000     kernel32:KERNEL32.dll
 0000:fffe6000       .debug$S                   0000000180000000     kernel32:KERNEL32.dll
 0000:fffe6000       .debug$S                   0000000180000000     kernel32:KERNEL32.dll
 0000:fffe6000       .debug$S                   0000000180000000     kernel32:KERNEL32.dll
 0000:fffe6000       .debug$S                   0000000180000000     kernel32:KERNEL32.dll
 0000:fffe6000       .debug$S                   0000000180000000     kernel32:KERNEL32.dll
 0000:fffe6000       .debug$S                   0000000180000000     kernel32:KERNEL32.dll
 0000:fffe6000       .debug$S                   0000000180000000     kernel32:KERNEL32.dll
 0000:fffe6000       .debug$S                   0000000180000000     kernel32:KERNEL32.dll
 0000:fffe6000       .debug$S                   0000000180000000     msvcprt:MSVCP140.dll
 0000:fffe6000       .debug$S                   0000000180000000     msvcprt:MSVCP140.dll
 0000:fffe6000       .debug$S                   0000000180000000     msvcprt:MSVCP140.dll
 0000:fffe6000       .debug$S                   0000000180000000     SimConnect:WS2_32.dll
 0000:fffe6000       .debug$S                   0000000180000000     SimConnect:WS2_32.dll
 0000:fffe6000       .debug$S                   0000000180000000     SimConnect:WS2_32.dll
 0000:fffe6000       .debug$S                   0000000180000000     SimConnect:WS2_32.dll
 0000:fffe6000       .debug$S                   0000000180000000     SimConnect:WS2_32.dll
 0000:fffe6000       .debug$S                   0000000180000000     SimConnect:WS2_32.dll
 0000:fffe6000       .debug$S                   0000000180000000     SimConnect:WS2_32.dll
 0000:fffe6000       .debug$S                   0000000180000000     SimConnect:WS2_32.dll
 0000:fffe6000       .debug$S                   0000000180000000     SimConnect:WS2_32.dll
 0000:fffe6000       .debug$S                   0000000180000000     SimConnect:WS2_32.dll
 0000:fffe6000       .debug$S                   0000000180000000     SimConnect:WS2_32.dll
 0000:fffe6000       .debug$S                   0000000180000000     SimConnect:WS2_32.dll
 0000:fffe6000       .debug$S                   0000000180000000     SimConnect:WS2_32.dll
 0000:fffe6000       .debug$S                   0000000180000000     SimConnect:SHLWAPI.dll
 0000:fffe6000       .debug$S                   0000000180000000     kernel32:KERNEL32.dll
 0000:fffe6000       .debug$S                   0000000180000000     kernel32:KERNEL32.dll
 0000:fffe6000       .debug$S                   0000000180000000     kernel32:KERNEL32.dll
 0000:fffe6000       .debug$S                   0000000180000000     kernel32:KERNEL32.dll
 0000:fffe6000       .debug$S                   0000000180000000     kernel32:KERNEL32.dll
 0000:fffe6000       .debug$S                   0000000180000000     kernel32:KERNEL32.dll
 0000:fffe6000       .debug$S                   0000000180000000     kernel32:KERNEL32.dll
 0000:fffe6000       .debug$S                   0000000180000000     kernel32:KERNEL32.dll
 0000:fffe6000       .debug$S                   0000000180000000     kernel32:KERNEL32.dll
 0000:fffe6000       .debug$S                   0000000180000000     kernel32:KERNEL32.dll
 0000:fffe6000       .debug$S                   0000000180000000     kernel32:KERNEL32.dll
 0000:fffe6000       .debug$S                   0000000180000000     kernel32:KERNEL32.dll
 0000:fffe6000       .debug$S                   0000000180000000     kernel32:KERNEL32.dll
 0000:fffe6000       .debug$S                   0000000180000000     kernel32:KERNEL32.dll
 0000:fffe6000       .debug$S                   0000000180000000     kernel32:KERNEL32.dll
 0000:fffe6000       .debug$S                   0000000180000000     kernel32:KERNEL32.dll
 0000:fffe6000       .debug$S                   0000000180000000     kernel32:KERNEL32.dll
 0000:fffe6000       .debug$S                   0000000180000000     kernel32:KERNEL32.dll
 0000:fffe6000       .debug$S                   0000000180000000     kernel32:KERNEL32.dll
 0000:fffe6000       .debug$S                   0000000180000000     kernel32:KERNEL32.dll
 0000:fffe6000       .debug$S                   0000000180000000     kernel32:KERNEL32.dll
 0000:fffe6000       .debug$S                   0000000180000000     kernel32:KERNEL32.dll
 0000:fffe6000       .debug$S                   0000000180000000     node:node.exe
 0000:fffe6000       .debug$S                   0000000180000000     node:node.exe
 0000:fffe6000       .debug$S                   0000000180000000     node:node.exe
 0000:fffe6000       .debug$S                   0000000180000000     node:node.exe
 0000:fffe6000       .debug$S                   0000000180000000     node:node.exe
 0000:fffe6000       .debug$S                   0000000180000000     node:node.exe
 0000:fffe6000       .debug$S                   0000000180000000     node:node.exe
 0000:fffe6000       .debug$S                   0000000180000000     node:node.exe
 0000:fffe6000       .debug$S                   0000000180000000     node:node.exe
 0000:fffe6000       .debug$S                   0000000180000000     node:node.exe
 0000:fffe6000       .debug$S                   0000000180000000     node:node.exe
 0000:fffe6000       .debug$S                   0000000180000000     node:node.exe
 0000:fffe6000       .debug$S                   0000000180000000     node:node.exe
 0000:fffe6000       .debug$S                   0000000180000000     node:node.exe
 0000:fffe6000       .debug$S                   0000000180000000     node:node.exe
 0000:fffe6000       .debug$S                   0000000180000000     node:node.exe
 0000:fffe6000       .debug$S                   0000000180000000     node:node.exe
 0000:fffe6000       .debug$S                   0000000180000000     node:node.exe
 0000:fffe6000       .debug$S                   0000000180000000     node:node.exe
 0000:fffe6000       .debug$S                   0000000180000000     node:node.exe
 0000:fffe6000       .debug$S                   0000000180000000     user32:USER32.dll
 0000:fffe6000       .debug$S                   0000000180000000     node:node.exe
 0000:fffe6000       .debug$S                   0000000180000000     node:node.exe
 0000:fffe6000       .debug$S                   0000000180000000     node:node.exe
 0000:fffe6000       .debug$S                   0000000180000000     node:node.exe
 0000:fffe6000       .debug$S                   0000000180000000     node:node.exe
 0000:fffe6000       .debug$S                   0000000180000000     node:node.exe
 0000:fffe6000       .debug$S                   0000000180000000     node:node.exe
 0000:fffe6000       .debug$S                   0000000180000000     node:node.exe
 0000:fffe6000       .debug$S                   0000000180000000     node:node.exe
 0000:fffe6000       .debug$S                   0000000180000000     node:node.exe
 0000:fffe6000       .debug$S                   0000000180000000     node:node.exe
 0000:fffe6000       .debug$S                   0000000180000000     node:node.exe
 0000:fffe6000       .debug$S                   0000000180000000     node:node.exe
 0000:fffe6000       .debug$S                   0000000180000000     node:node.exe
 0000:fffe6000       .debug$S                   0000000180000000     node:node.exe
 0000:fffe6000       .debug$S                   0000000180000000     node:node.exe
 0000:fffe6000       .debug$S                   0000000180000000     node:node.exe
 0000:fffe6000       .debug$S                   0000000180000000     node:node.exe
 0000:fffe6000       .debug$S                   0000000180000000     node:node.exe
 0000:fffe6000       .debug$S                   0000000180000000     node:node.exe
 0000:fffe6000       .debug$S                   0000000180000000     node:node.exe
 0000:fffe6000       .debug$S                   0000000180000000     node:node.exe
 0000:fffe6000       .debug$S                   0000000180000000     node:node.exe
 0000:fffe6000       .debug$S                   0000000180000000     node:node.exe
 0000:fffe6000       .debug$S                   0000000180000000     node:node.exe
 0000:fffe6000       .debug$S                   0000000180000000     node:node.exe
 0000:fffe6000       .debug$S                   0000000180000000     node:node.exe
 0000:fffe6000       .debug$S                   0000000180000000     node:node.exe
 0000:fffe6000       .debug$S                   0000000180000000     node:node.exe
 0000:fffe6000       .debug$S                   0000000180000000     node:node.exe
 0000:fffe6000       .debug$S                   0000000180000000     ole32:ole32.dll
 0000:fffe6000       .debug$S                   0000000180000000     shell32:SHELL32.dll
 0000:fffe6000       .debug$S                   0000000180000000     advapi32:ADVAPI32.dll
 0000:fffe6000       .debug$S                   0000000180000000     advapi32:ADVAPI32.dll
 0000:fffe6000       .debug$S                   0000000180000000     advapi32:ADVAPI32.dll
 0000:fffe6000       .debug$S                   0000000180000000     user32:USER32.dll
 0000:fffe6000       .debug$S                   0000000180000000     user32:USER32.dll
 0000:fffe6000       .debug$S                   0000000180000000     user32:USER32.dll
 0001:00000000       ??__EexceptionNames@@YAXXZ 0000000180001000 f   addon.obj
 0001:000003a0       ??__EsizeMap@@YAXXZ        00000001800013a0 f   addon.obj
 0001:00000480       ??__EdataRequests@@YAXXZ   0000000180001480 f   addon.obj
 0001:000004e0       ??__EsystemEventCallbacks@@YAXXZ 00000001800014e0 f   addon.obj
 0001:00000550       ??__EsystemStateCallbacks@@YAXXZ 0000000180001550 f   addon.obj
 0001:000005c0       ??__Es_ClientCS@@YAXXZ     00000001800015c0 f   SimConnect:commClient.obj
 0001:00000f5c       $LN19                      0000000180001f5c     addon.obj
 0001:00004180       _register_addon            0000000180005180 f   addon.obj
 0001:000087f0       ?load_exe_hook@@YAP6A_JXZIPEAUDelayLoadInfo@@@Z 00000001800097f0 f   win_delay_load_hook.obj
 0001:00009af0       ?ClientCallback@@YAHPEAUSIMCONNECT_INPROC@@@Z 000000018000aaf0 f   SimConnect:commClient.obj
 0001:0000b3d0       ?SniffPacket@@YAXPEAVClientClient@@PEAUSIMCONNECT_RECV@@K@Z 000000018000c3d0 f   SimConnect:commClient.obj
 0001:0000cf20       $$000000                   000000018000df20     MSVCRT:_amdsecgs_.obj
 0001:0000d37c       ?dllmain_crt_dispatch@@YAHQEAUHINSTANCE__@@KQEAX@Z 000000018000e37c f   MSVCRT:dll_dllmain.obj
 0001:0000d3cc       ?dllmain_crt_process_attach@@YAHQEAUHINSTANCE__@@QEAX@Z 000000018000e3cc f   MSVCRT:dll_dllmain.obj
 0001:0000d4f8       ?dllmain_crt_process_detach@@YAH_N@Z 000000018000e4f8 f   MSVCRT:dll_dllmain.obj
 0001:0000d57c       ?dllmain_dispatch@@YAHQEAUHINSTANCE__@@KQEAX@Z 000000018000e57c f   MSVCRT:dll_dllmain.obj
 0001:0000d674       ?dllmain_raw@@YAHQEAUHINSTANCE__@@KQEAX@Z 000000018000e674 f   MSVCRT:dll_dllmain.obj
 0001:0000d810       $$000000                   000000018000e810     MSVCRT:_chkstk_.obj
 0001:0000d97c       capture_previous_context   000000018000e97c f   MSVCRT:gs_report.obj
 0001:0000e7f0       $$000000                   000000018000f7f0     MSVCRT:_guard_dispatch_.obj
 0001:0000e810       ?dtor$0@?0??CommClient_SendAllocate@@YA?AW4CC_RESULT@@PEAXPEAPEAUSIMCONNECT_SEND@@K@Z@4HA 000000018000f810 f   SimConnect:commClient.obj
 0001:0000e810       ?dtor$0@?0??CommClient_SendAbort@@YA?AW4CC_RESULT@@PEAXPEAUSIMCONNECT_SEND@@K@Z@4HA 000000018000f810 f   SimConnect:commClient.obj
 0001:0000e810       ?dtor$0@?0??AddElement@?$CThreadSafeQueue@V?$TSmartPtr@VQueueItem@@@@@@QEAAHAEBV?$TSmartPtr@VQueueItem@@@@@Z@4HA 000000018000f810 f   SimConnect:commClient.obj
 0001:0000e820       ?dtor$0@?0??ClientPutInQueue@@YAXKKIPEAX@Z@4HA 000000018000f820 f   SimConnect:commClient.obj
 0001:0000e82c       ?dtor$1@?0??ClientPutInQueue@@YAXKKIPEAX@Z@4HA 000000018000f82c f   SimConnect:commClient.obj
 0001:0000e840       ?dtor$0@?0??CommClient_Close@@YA?AW4CC_RESULT@@PEAX@Z@4HA 000000018000f840 f   SimConnect:commClient.obj
 0001:0000e850       ?dtor$0@?0??CommClient_Open@@YA?AW4CC_RESULT@@PEAPEAXK@Z@4HA 000000018000f850 f   SimConnect:commClient.obj
 0001:0000e86d       ?dtor$1@?0??CommClient_Open@@YA?AW4CC_RESULT@@PEAPEAXK@Z@4HA 000000018000f86d f   SimConnect:commClient.obj
 0001:0000e88a       ?dtor$2@?0??CommClient_Open@@YA?AW4CC_RESULT@@PEAPEAXK@Z@4HA 000000018000f88a f   SimConnect:commClient.obj
 0001:0000e8a7       ?dtor$3@?0??CommClient_Open@@YA?AW4CC_RESULT@@PEAPEAXK@Z@4HA 000000018000f8a7 f   SimConnect:commClient.obj
 0001:0000e8d0       ?dtor$0@?0??CommClient_ReceiveDispatch@@YA?AW4CC_RESULT@@PEAXP6AXPEAUSIMCONNECT_RECV@@K0@Z0@Z@4HA 000000018000f8d0 f   SimConnect:commClient.obj
 0001:0000e8e0       ?dtor$0@?0??CommClient_SendFlush@@YA?AW4CC_RESULT@@PEAX@Z@4HA 000000018000f8e0 f   SimConnect:commClient.obj
 0001:0000e8ec       ?dtor$1@?0??CommClient_SendFlush@@YA?AW4CC_RESULT@@PEAX@Z@4HA 000000018000f8ec f   SimConnect:commClient.obj
 0001:0000e900       ?dtor$0@?0??ProcessPacket@ClientClient@@UEAA?AW4PROCESSPACKET@CClient@@PEAVtagPacket@@@Z@4HA 000000018000f900 f   SimConnect:commClient.obj
 0001:0000e90c       ?dtor$1@?0??ProcessPacket@ClientClient@@UEAA?AW4PROCESSPACKET@CClient@@PEAVtagPacket@@@Z@4HA 000000018000f90c f   SimConnect:commClient.obj
 0001:0000e920       ?catch$48@?0??_Reallocate@?$vector@UCLIENT_INPROC_ALLOC@@V?$allocator@UCLIENT_INPROC_ALLOC@@@std@@@std@@IEAAX_K@Z@4HA 000000018000f920 f   SimConnect:commClient.obj
 0001:0000e92d       __catch$?_Reallocate@?$vector@UCLIENT_INPROC_ALLOC@@V?$allocator@UCLIENT_INPROC_ALLOC@@@std@@@std@@IEAAX_K@Z$0 000000018000f92d f   SimConnect:commClient.obj
 0001:0000e948       __scrt_is_nonwritable_in_current_image$filt$0 000000018000f948 f   MSVCRT:utility.obj
 0001:0000e960       ?fin$0@?0??dllmain_crt_process_attach@@YAHQEAUHINSTANCE__@@QEAX@Z@4HA 000000018000f960 f   MSVCRT:dll_dllmain.obj
 0001:0000e977       ?fin$0@?0??dllmain_crt_process_detach@@YAH_N@Z@4HA 000000018000f977 f   MSVCRT:dll_dllmain.obj
 0001:0000e993       ?filt$0@?0??dllmain_dispatch@@YAHQEAUHINSTANCE__@@KQEAX@Z@4HA 000000018000f993 f   MSVCRT:dll_dllmain.obj
 0001:0000e9d0       ??__FexceptionNames@@YAXXZ 000000018000f9d0 f   addon.obj
 0001:0000ea10       ??__FsizeMap@@YAXXZ        000000018000fa10 f   addon.obj
 0001:0000ea50       ??__FdataRequests@@YAXXZ   000000018000fa50 f   addon.obj
 0001:0000ea90       ??__FsystemEventCallbacks@@YAXXZ 000000018000fa90 f   addon.obj
 0001:0000eae0       ??__FsystemStateCallbacks@@YAXXZ 000000018000fae0 f   addon.obj
 0001:0000eb30       ??__Fs_ClientCS@@YAXXZ     000000018000fb30 f   SimConnect:commClient.obj
 0002:000003a8       ?s_ClientCS$initializer$@@3P6AXXZEA 00000001800103a8     SimConnect:commClient.obj
 0002:000003b0       ?systemEventCallbacks$initializer$@@3P6AXXZEA 00000001800103b0     addon.obj
 0002:000003b8       ?sizeMap$initializer$@@3P6AXXZEA 00000001800103b8     addon.obj
 0002:000003c0       ?systemStateCallbacks$initializer$@@3P6AXXZEA 00000001800103c0     addon.obj
 0002:000003c8       ?exceptionNames$initializer$@@3P6AXXZEA 00000001800103c8     addon.obj
 0002:000003d0       ?dataRequests$initializer$@@3P6AXXZEA 00000001800103d0     addon.obj
 0002:00000430       ?RegPort_IPv6@@3QB_WB      0000000180010430     SimConnect:commClient.obj
 0002:00000460       ?RegPort_IPv4@@3QB_WB      0000000180010460     SimConnect:commClient.obj
 0002:0000048c       ?localhostPipe@@3QB_WB     000000018001048c     SimConnect:commClient.obj
 0002:00000490       ?PROTOCOL_IPV4@@3QB_WB     0000000180010490     SimConnect:commClient.obj
 0002:000004a0       ?PROTOCOL_IPV6@@3QB_WB     00000001800104a0     SimConnect:commClient.obj
 0002:000004b0       ?PROTOCOL_AUTO@@3QB_WB     00000001800104b0     SimConnect:commClient.obj
 0002:000004c0       ?PROTOCOL_PIPE@@3QB_WB     00000001800104c0     SimConnect:commClient.obj
 0002:000004d0       ?GLOBAL_PIPE_NAME@@3QB_WB  00000001800104d0     SimConnect:commClient.obj
 0002:00000538       ?GLOBAL_PIPE_NAME_SET@@3QB_WB 0000000180010538     SimConnect:commClient.obj
 0002:00000558       ?ConfigFileName@@3QB_WB    0000000180010558     SimConnect:commClient.obj
 0002:00000578       ?SectionName@@3QB_WB       0000000180010578     SimConnect:commClient.obj
 0002:00000590       ?SectionNameN@@3QB_WB      0000000180010590     SimConnect:commClient.obj
 0002:000005b0       ?localhostIPv4@@3QB_WB     00000001800105b0     SimConnect:commClient.obj
 0002:000005c8       ?localhostIPv6@@3QB_WB     00000001800105c8     SimConnect:commClient.obj
 0002:000005d0       $cppxdata$?CommClient_Open@@YA?AW4CC_RESULT@@PEAPEAXK@Z 00000001800105d0     SimConnect:commClient.obj
 0002:000005f8       $cppxdata$?CommClient_Close@@YA?AW4CC_RESULT@@PEAX@Z 00000001800105f8     SimConnect:commClient.obj
 0002:00000620       $cppxdata$?CommClient_SendAllocate@@YA?AW4CC_RESULT@@PEAXPEAPEAUSIMCONNECT_SEND@@K@Z 0000000180010620     SimConnect:commClient.obj
 0002:00000648       $cppxdata$?CommClient_SendAbort@@YA?AW4CC_RESULT@@PEAXPEAUSIMCONNECT_SEND@@K@Z 0000000180010648     SimConnect:commClient.obj
 0002:00000670       $cppxdata$?CommClient_SendFlush@@YA?AW4CC_RESULT@@PEAX@Z 0000000180010670     SimConnect:commClient.obj
 0002:00000698       $cppxdata$?CommClient_ReceiveDispatch@@YA?AW4CC_RESULT@@PEAXP6AXPEAUSIMCONNECT_RECV@@K0@Z0@Z 0000000180010698     SimConnect:commClient.obj
 0002:000006c0       $cppxdata$?AddElement@?$CThreadSafeQueue@V?$TSmartPtr@VQueueItem@@@@@@QEAAHAEBV?$TSmartPtr@VQueueItem@@@@@Z 00000001800106c0     SimConnect:commClient.obj
 0002:000006e8       $cppxdata$?ProcessPacket@ClientClient@@UEAA?AW4PROCESSPACKET@CClient@@PEAVtagPacket@@@Z 00000001800106e8     SimConnect:commClient.obj
 0002:00000710       $cppxdata$?_Reallocate@?$vector@UCLIENT_INPROC_ALLOC@@V?$allocator@UCLIENT_INPROC_ALLOC@@@std@@@std@@IEAAX_K@Z 0000000180010710     SimConnect:commClient.obj
 0002:00000738       $cppxdata$?ClientPutInQueue@@YAXKKIPEAX@Z 0000000180010738     SimConnect:commClient.obj
 0002:00000878       ?localhostIPv4@@3QB_WB     0000000180010878     SimConnect:client.obj
 0002:00000890       ?localhostIPv6@@3QB_WB     0000000180010890     SimConnect:client.obj
 0002:000008e8       GS_ExceptionPointers       00000001800108e8     MSVCRT:gs_report.obj
 0002:00001388       ?piecewise_construct@std@@3Upiecewise_construct_t@1@B 0000000180011388     addon.obj
 0002:00001a40       $unwind$printf             0000000180011a40     addon.obj
 0002:00001a4c       $unwind$sprintf            0000000180011a4c     addon.obj
 0002:00001a58       $unwind$?NODE_SET_METHOD@node@@YAXV?$Local@VObject@v8@@@v8@@PEBDP6AXAEBV?$FunctionCallbackInfo@VValue@v8@@@3@@Z@Z 0000000180011a58     addon.obj
 0002:00001a68       $unwind$?Call@Callback@Nan@@QEBA?AV?$Local@VValue@v8@@@v8@@HQEAV34@@Z 0000000180011a68     addon.obj
 0002:00001a7c       $unwind$??0AsyncWorker@Nan@@QEAA@PEAVCallback@1@@Z 0000000180011a7c     addon.obj
 0002:00001a8c       $unwind$??$_Insert_hint@AEAU?$pair@$$CBW4SIMCONNECT_EXCEPTION@@PEBD@std@@PEAU?$_Tree_node@U?$pair@$$CBW4SIMCONNECT_EXCEPTION@@PEBD@std@@PEAX@2@@?$_Tree@V?$_Tmap_traits@W4SIMCONNECT_EXCEPTION@@PEBDU?$less@W4SIMCONNECT_EXCEPTION@@@std@@V?$allocator@U?$pair@$$CBW4SIMCONNECT_EXCEPTION@@PEBD@std@@@3@$0A@@std@@@std@@IEAA?AV?$_Tree_iterator@V?$_Tree_val@U?$_Tree_simple_types@U?$pair@$$CBW4SIMCONNECT_EXCEPTION@@PEBD@std@@@std@@@std@@@1@V?$_Tree_const_iterator@V?$_Tree_val@U?$_Tree_simple_types@U?$pair@$$CBW4SIMCONNECT_EXCEPTION@@PEBD@std@@@std@@@std@@@1@AEAU?$pair@$$CBW4SIMCONNECT_EXCEPTION@@PEBD@1@PEAU?$_Tree_node@U?$pair@$$CBW4SIMCONNECT_EXCEPTION@@PEBD@std@@PEAX@1@@Z 0000000180011a8c     addon.obj
 0002:00001a8c       $unwind$??$_Insert_hint@AEAU?$pair@$$CBHUDataRequest@@@std@@PEAU?$_Tree_node@U?$pair@$$CBHUDataRequest@@@std@@PEAX@2@@?$_Tree@V?$_Tmap_traits@HUDataRequest@@U?$less@H@std@@V?$allocator@U?$pair@$$CBHUDataRequest@@@std@@@3@$0A@@std@@@std@@IEAA?AV?$_Tree_iterator@V?$_Tree_val@U?$_Tree_simple_types@U?$pair@$$CBHUDataRequest@@@std@@@std@@@std@@@1@V?$_Tree_const_iterator@V?$_Tree_val@U?$_Tree_simple_types@U?$pair@$$CBHUDataRequest@@@std@@@std@@@std@@@1@AEAU?$pair@$$CBHUDataRequest@@@1@PEAU?$_Tree_node@U?$pair@$$CBHUDataRequest@@@std@@PEAX@1@@Z 0000000180011a8c     addon.obj
 0002:00001a8c       $unwind$??1AsyncWorker@Nan@@UEAA@XZ 0000000180011a8c     addon.obj
 0002:00001a8c       $unwind$??$_Insert_hint@AEAU?$pair@$$CBW4SIMCONNECT_DATATYPE@@H@std@@PEAU?$_Tree_node@U?$pair@$$CBW4SIMCONNECT_DATATYPE@@H@std@@PEAX@2@@?$_Tree@V?$_Tmap_traits@W4SIMCONNECT_DATATYPE@@HU?$less@W4SIMCONNECT_DATATYPE@@@std@@V?$allocator@U?$pair@$$CBW4SIMCONNECT_DATATYPE@@H@std@@@3@$0A@@std@@@std@@IEAA?AV?$_Tree_iterator@V?$_Tree_val@U?$_Tree_simple_types@U?$pair@$$CBW4SIMCONNECT_DATATYPE@@H@std@@@std@@@std@@@1@V?$_Tree_const_iterator@V?$_Tree_val@U?$_Tree_simple_types@U?$pair@$$CBW4SIMCONNECT_DATATYPE@@H@std@@@std@@@std@@@1@AEAU?$pair@$$CBW4SIMCONNECT_DATATYPE@@H@1@PEAU?$_Tree_node@U?$pair@$$CBW4SIMCONNECT_DATATYPE@@H@std@@PEAX@1@@Z 0000000180011a8c     addon.obj
 0002:00001a98       $unwind$?WorkComplete@AsyncWorker@Nan@@UEAAXXZ 0000000180011a98     addon.obj
 0002:00001aa4       $unwind$?Execute@DispatchWorker@@UEAAXXZ 0000000180011aa4     addon.obj
 0002:00001aa4       $unwind$?IssueNetRead@CClient@@QEAAXXZ 0000000180011aa4     SimConnect:client.obj
 0002:00001aa4       $unwind$?TransmitClientEvent@@YAXAEBV?$FunctionCallbackInfo@VValue@v8@@@v8@@@Z 0000000180011aa4     addon.obj
 0002:00001aa4       $unwind$?HandleOKCallback@AsyncWorker@Nan@@MEAAXXZ 0000000180011aa4     addon.obj
 0002:00001aa4       $unwind$?messageReceiver@@YAXPEAUuv_async_s@@@Z 0000000180011aa4     addon.obj
 0002:00001aac       $unwind$?HandleErrorCallback@AsyncWorker@Nan@@MEAAXXZ 0000000180011aac     addon.obj
 0002:00001abc       $unwind$?_Assign_rv@?$basic_string@DU?$char_traits@D@std@@V?$allocator@D@2@@std@@QEAAX$$QEAV12@@Z 0000000180011abc     addon.obj
 0002:00001abc       $unwind$??_Gbad_array_new_length@std@@UEAAPEAXI@Z 0000000180011abc     MSVCRT:throw_bad_alloc.obj
 0002:00001abc       $unwind$?DloadAcquireSectionWriteAccess@@YAXXZ 0000000180011abc     DelayImp:delayhlp.obj
 0002:00001abc       $unwind$??_Gexception@std@@UEAAPEAXI@Z 0000000180011abc     MSVCRT:throw_bad_alloc.obj
 0002:00001abc       $unwind$?push_back@?$vector@UCLIENT_INPROC_ALLOC@@V?$allocator@UCLIENT_INPROC_ALLOC@@@std@@@std@@QEAAXAEBUCLIENT_INPROC_ALLOC@@@Z 0000000180011abc     SimConnect:commClient.obj
 0002:00001abc       $unwind$?Close@ClientClient@@UEAAXW4CLIENTERROR@@K@Z 0000000180011abc     SimConnect:commClient.obj
 0002:00001abc       $unwind$??0ClientClient@@QEAA@W4CLIENTTYPE@CClient@@@Z 0000000180011abc     SimConnect:commClient.obj
 0002:00001abc       $unwind$?XWrite@CClient@@QEAA_NAEBV?$TSmartPtr@VQueueItem@@@@@Z 0000000180011abc     SimConnect:client.obj
 0002:00001abc       $unwind$?DloadGetSRWLockFunctionPointers@@YAEXZ 0000000180011abc     DelayImp:delayhlp.obj
 0002:00001abc       $unwind$?clear@?$_Tree@V?$_Tmap_traits@W4SIMCONNECT_EXCEPTION@@PEBDU?$less@W4SIMCONNECT_EXCEPTION@@@std@@V?$allocator@U?$pair@$$CBW4SIMCONNECT_EXCEPTION@@PEBD@std@@@3@$0A@@std@@@std@@QEAAXXZ 0000000180011abc     addon.obj
 0002:00001abc       $unwind$??_GClientClient@@UEAAPEAXI@Z 0000000180011abc     SimConnect:commClient.obj
 0002:00001abc       $unwind$??_GAsyncWorker@Nan@@UEAAPEAXI@Z 0000000180011abc     addon.obj
 0002:00001abc       $unwind$?_Buy@?$vector@W4SIMCONNECT_DATATYPE@@V?$allocator@W4SIMCONNECT_DATATYPE@@@std@@@std@@IEAA_N_K@Z 0000000180011abc     addon.obj
 0002:00001abc       $unwind$??0CClient@@QEAA@W4CLIENTTYPE@0@@Z 0000000180011abc     SimConnect:client.obj
 0002:00001abc       $unwind$?clear@?$_Tree@V?$_Tmap_traits@W4SIMCONNECT_DATATYPE@@HU?$less@W4SIMCONNECT_DATATYPE@@@std@@V?$allocator@U?$pair@$$CBW4SIMCONNECT_DATATYPE@@H@std@@@3@$0A@@std@@@std@@QEAAXXZ 0000000180011abc     addon.obj
 0002:00001abc       $unwind$??_Gbad_alloc@std@@UEAAPEAXI@Z 0000000180011abc     MSVCRT:throw_bad_alloc.obj
 0002:00001abc       $unwind$??1DataRequest@@QEAA@XZ 0000000180011abc     addon.obj
 0002:00001abc       $unwind$?erase@?$basic_string@DU?$char_traits@D@std@@V?$allocator@D@2@@std@@QEAAAEAV12@_K0@Z 0000000180011abc     addon.obj
 0002:00001abc       $unwind$?_Buy@?$vector@V?$basic_string@DU?$char_traits@D@std@@V?$allocator@D@2@@std@@V?$allocator@V?$basic_string@DU?$char_traits@D@std@@V?$allocator@D@2@@std@@@2@@std@@IEAA_N_K@Z 0000000180011abc     addon.obj
 0002:00001abc       $unwind$??_GQueueItem@@MEAAPEAXI@Z 0000000180011abc     SimConnect:commClient.obj
 0002:00001abc       $unwind$??_GDispatchWorker@@UEAAPEAXI@Z 0000000180011abc     addon.obj
 0002:00001ac8       $unwind$??1?$TSmartPtr@VQueueItem@@@@QEAA@XZ 0000000180011ac8     SimConnect:commClient.obj
 0002:00001ac8       $unwind$?load_exe_hook@@YAP6A_JXZIPEAUDelayLoadInfo@@@Z 0000000180011ac8     win_delay_load_hook.obj
 0002:00001ac8       $unwind$??1CClient@@UEAA@XZ 0000000180011ac8     SimConnect:client.obj
 0002:00001ac8       $unwind$??2@YAPEAX_K@Z     0000000180011ac8     MSVCRT:new_scalar.obj
 0002:00001ac8       $unwind$??0exception@std@@QEAA@AEBV01@@Z 0000000180011ac8     MSVCRT:throw_bad_alloc.obj
 0002:00001ac8       $unwind$??_Gtype_info@@UEAAPEAXI@Z 0000000180011ac8     MSVCRT:std_type_info_static.obj
 0002:00001ac8       $unwind$??$_Insert_at@AEAU?$pair@$$CBHPEAVCallback@Nan@@@std@@PEAU?$_Tree_node@U?$pair@$$CBHPEAVCallback@Nan@@@std@@PEAX@2@@?$_Tree@V?$_Tmap_traits@HPEAVCallback@Nan@@U?$less@H@std@@V?$allocator@U?$pair@$$CBHPEAVCallback@Nan@@@std@@@4@$0A@@std@@@std@@IEAA?AV?$_Tree_iterator@V?$_Tree_val@U?$_Tree_simple_types@U?$pair@$$CBHPEAVCallback@Nan@@@std@@@std@@@std@@@1@_NPEAU?$_Tree_node@U?$pair@$$CBHPEAVCallback@Nan@@@std@@PEAX@1@AEAU?$pair@$$CBHPEAVCallback@Nan@@@1@1@Z 0000000180011ac8     addon.obj
 0002:00001ac8       $unwind$?DloadReleaseSectionWriteAccess@@YAXXZ 0000000180011ac8     DelayImp:delayhlp.obj
 0002:00001ac8       $unwind$_onexit            0000000180011ac8     MSVCRT:utility.obj
 0002:00001ac8       $unwind$__scrt_release_startup_lock 0000000180011ac8     MSVCRT:utility.obj
 0002:00001ac8       $unwind$?Unlink@ClientClient@@QEAAXXZ 0000000180011ac8     SimConnect:commClient.obj
 0002:00001ac8       $unwind$__scrt_initialize_crt 0000000180011ac8     MSVCRT:utility.obj
 0002:00001ac8       $unwind$__scrt_uninitialize_crt 0000000180011ac8     MSVCRT:utility.obj
 0002:00001ac8       $unwind$?AsyncExecuteComplete@Nan@@YAXPEAUuv_work_s@@@Z 0000000180011ac8     addon.obj
 0002:00001ac8       $unwind$??0bad_array_new_length@std@@QEAA@AEBV01@@Z 0000000180011ac8     MSVCRT:throw_bad_alloc.obj
 0002:00001ac8       $unwind$?CreateInvalidPacket@CClient@@QEAAXPEAVtagPacket@@@Z 0000000180011ac8     SimConnect:client.obj
 0002:00001ac8       $unwind$__raise_securityfailure 0000000180011ac8     MSVCRT:gs_report.obj
 0002:00001ac8       $unwind$?Release@CClient@@QEAA_NXZ 0000000180011ac8     SimConnect:client.obj
 0002:00001ac8       $unwind$??0bad_alloc@std@@QEAA@AEBV01@@Z 0000000180011ac8     MSVCRT:throw_bad_alloc.obj
 0002:00001ad0       $unwind$??__EexceptionNames@@YAXXZ 0000000180011ad0     addon.obj
 0002:00001ae4       $unwind$??$_Insert_at@AEAU?$pair@$$CBW4SIMCONNECT_EXCEPTION@@PEBD@std@@PEAU?$_Tree_node@U?$pair@$$CBW4SIMCONNECT_EXCEPTION@@PEBD@std@@PEAX@2@@?$_Tree@V?$_Tmap_traits@W4SIMCONNECT_EXCEPTION@@PEBDU?$less@W4SIMCONNECT_EXCEPTION@@@std@@V?$allocator@U?$pair@$$CBW4SIMCONNECT_EXCEPTION@@PEBD@std@@@3@$0A@@std@@@std@@IEAA?AV?$_Tree_iterator@V?$_Tree_val@U?$_Tree_simple_types@U?$pair@$$CBW4SIMCONNECT_EXCEPTION@@PEBD@std@@@std@@@std@@@1@_NPEAU?$_Tree_node@U?$pair@$$CBW4SIMCONNECT_EXCEPTION@@PEBD@std@@PEAX@1@AEAU?$pair@$$CBW4SIMCONNECT_EXCEPTION@@PEBD@1@1@Z 0000000180011ae4     addon.obj
 0002:00001ae4       $unwind$?deallocate@?$_Wrap_alloc@V?$allocator@W4SIMCONNECT_DATATYPE@@@std@@@std@@QEAAXPEAW4SIMCONNECT_DATATYPE@@_K@Z 0000000180011ae4     addon.obj
 0002:00001ae4       $unwind$__scrt_dllmain_crt_thread_attach 0000000180011ae4     MSVCRT:utility.obj
 0002:00001ae4       $unwind$?allocate@?$_Wrap_alloc@V?$allocator@V?$basic_string@DU?$char_traits@D@std@@V?$allocator@D@2@@std@@@std@@@std@@QEAAPEAV?$basic_string@DU?$char_traits@D@std@@V?$allocator@D@2@@2@_K@Z 0000000180011ae4     addon.obj
 0002:00001ae4       $unwind$?dllmain_crt_dispatch@@YAHQEAUHINSTANCE__@@KQEAX@Z 0000000180011ae4     MSVCRT:dll_dllmain.obj
 0002:00001ae4       $unwind$?allocate@?$_Wrap_alloc@V?$allocator@W4SIMCONNECT_DATATYPE@@@std@@@std@@QEAAPEAW4SIMCONNECT_DATATYPE@@_K@Z 0000000180011ae4     addon.obj
 0002:00001ae4       $unwind$??$_Insert_at@AEAU?$pair@$$CBHUDataRequest@@@std@@PEAU?$_Tree_node@U?$pair@$$CBHUDataRequest@@@std@@PEAX@2@@?$_Tree@V?$_Tmap_traits@HUDataRequest@@U?$less@H@std@@V?$allocator@U?$pair@$$CBHUDataRequest@@@std@@@3@$0A@@std@@@std@@IEAA?AV?$_Tree_iterator@V?$_Tree_val@U?$_Tree_simple_types@U?$pair@$$CBHUDataRequest@@@std@@@std@@@std@@@1@_NPEAU?$_Tree_node@U?$pair@$$CBHUDataRequest@@@std@@PEAX@1@AEAU?$pair@$$CBHUDataRequest@@@1@1@Z 0000000180011ae4     addon.obj
 0002:00001ae4       $unwind$??__FsystemStateCallbacks@@YAXXZ 0000000180011ae4     addon.obj
 0002:00001ae4       $unwind$__scrt_initialize_default_local_stdio_options 0000000180011ae4     MSVCRT:default_local_stdio_options.obj
 0002:00001ae4       $unwind$??__EsystemStateCallbacks@@YAXXZ 0000000180011ae4     addon.obj
 0002:00001ae4       $unwind$DllMain            0000000180011ae4     MSVCRT:dll_dllmain_stub.obj
 0002:00001ae4       $unwind$??__FsystemEventCallbacks@@YAXXZ 0000000180011ae4     addon.obj
 0002:00001ae4       $unwind$??__Es_ClientCS@@YAXXZ 0000000180011ae4     SimConnect:commClient.obj
 0002:00001ae4       $unwind$??__EsystemEventCallbacks@@YAXXZ 0000000180011ae4     addon.obj
 0002:00001ae4       $unwind$__GSHandlerCheck   0000000180011ae4     MSVCRT:_gshandler_.obj
 0002:00001ae4       $unwind$??__FdataRequests@@YAXXZ 0000000180011ae4     addon.obj
 0002:00001ae4       $unwind$atexit             0000000180011ae4     MSVCRT:utility.obj
 0002:00001ae4       $unwind$??__EdataRequests@@YAXXZ 0000000180011ae4     addon.obj
 0002:00001ae4       $unwind$__scrt_acquire_startup_lock 0000000180011ae4     MSVCRT:utility.obj
 0002:00001ae4       $unwind$??__FsizeMap@@YAXXZ 0000000180011ae4     addon.obj
 0002:00001ae4       $unwind$?allocate@?$allocator@UCLIENT_INPROC_ALLOC@@@std@@QEAAPEAUCLIENT_INPROC_ALLOC@@_K@Z 0000000180011ae4     SimConnect:commClient.obj
 0002:00001ae4       $unwind$__scrt_dllmain_before_initialize_c 0000000180011ae4     MSVCRT:utility.obj
 0002:00001ae4       $unwind$__scrt_dllmain_after_initialize_c 0000000180011ae4     MSVCRT:utility.obj
 0002:00001ae4       $unwind$??__FexceptionNames@@YAXXZ 0000000180011ae4     addon.obj
 0002:00001ae4       $unwind$__scrt_dllmain_uninitialize_c 0000000180011ae4     MSVCRT:utility.obj
 0002:00001ae4       $unwind$?deallocate@?$_Wrap_alloc@V?$allocator@V?$basic_string@DU?$char_traits@D@std@@V?$allocator@D@2@@std@@@std@@@std@@QEAAXPEAV?$basic_string@DU?$char_traits@D@std@@V?$allocator@D@2@@2@_K@Z 0000000180011ae4     addon.obj
 0002:00001ae4       $unwind$??$_Insert_at@AEAU?$pair@$$CBW4SIMCONNECT_DATATYPE@@H@std@@PEAU?$_Tree_node@U?$pair@$$CBW4SIMCONNECT_DATATYPE@@H@std@@PEAX@2@@?$_Tree@V?$_Tmap_traits@W4SIMCONNECT_DATATYPE@@HU?$less@W4SIMCONNECT_DATATYPE@@@std@@V?$allocator@U?$pair@$$CBW4SIMCONNECT_DATATYPE@@H@std@@@3@$0A@@std@@@std@@IEAA?AV?$_Tree_iterator@V?$_Tree_val@U?$_Tree_simple_types@U?$pair@$$CBW4SIMCONNECT_DATATYPE@@H@std@@@std@@@std@@@1@_NPEAU?$_Tree_node@U?$pair@$$CBW4SIMCONNECT_DATATYPE@@H@std@@PEAX@1@AEAU?$pair@$$CBW4SIMCONNECT_DATATYPE@@H@1@1@Z 0000000180011ae4     addon.obj
 0002:00001ae4       $unwind$?deallocate@?$allocator@UCLIENT_INPROC_ALLOC@@@std@@QEAAXPEAUCLIENT_INPROC_ALLOC@@_K@Z 0000000180011ae4     SimConnect:commClient.obj
 0002:00001ae4       $unwind$__scrt_dllmain_crt_thread_detach 0000000180011ae4     MSVCRT:utility.obj
 0002:00001ae4       $unwind$__scrt_dllmain_uninitialize_critical 0000000180011ae4     MSVCRT:utility.obj
 0002:00001aec       $unwind$??__EsizeMap@@YAXXZ 0000000180011aec     addon.obj
 0002:00001afc       $unwind$?handleReceived_Data@@YAXPEAVIsolate@v8@@PEAUSIMCONNECT_RECV@@K@Z 0000000180011afc     addon.obj
 0002:00001b14       $chain$0$?handleReceived_Data@@YAXPEAVIsolate@v8@@PEAUSIMCONNECT_RECV@@K@Z 0000000180011b14     addon.obj
 0002:00001b28       $unwind$?handle_Error@@YAXPEAVIsolate@v8@@J@Z 0000000180011b28     addon.obj
 0002:00001b44       $unwind$?handleReceived_Event@@YAXPEAVIsolate@v8@@PEAUSIMCONNECT_RECV@@K@Z 0000000180011b44     addon.obj
 0002:00001b54       $unwind$?handleReceived_Exception@@YAXPEAVIsolate@v8@@PEAUSIMCONNECT_RECV@@K@Z 0000000180011b54     addon.obj
 0002:00001b64       $unwind$?handleReceived_Filename@@YAXPEAVIsolate@v8@@PEAUSIMCONNECT_RECV@@K@Z 0000000180011b64     addon.obj
 0002:00001b74       $unwind$?handleReceived_Open@@YAXPEAVIsolate@v8@@PEAUSIMCONNECT_RECV@@K@Z 0000000180011b74     addon.obj
 0002:00001b90       $unwind$?handleReceived_SystemState@@YAXPEAVIsolate@v8@@PEAUSIMCONNECT_RECV@@K@Z 0000000180011b90     addon.obj
 0002:00001ba0       $unwind$?handleReceived_Quit@@YAXPEAVIsolate@v8@@@Z 0000000180011ba0     addon.obj
 0002:00001bb0       $unwind$?Open@@YAXAEBV?$FunctionCallbackInfo@VValue@v8@@@v8@@@Z 0000000180011bb0     addon.obj
 0002:00001bc4       $unwind$?Close@@YAXAEBV?$FunctionCallbackInfo@VValue@v8@@@v8@@@Z 0000000180011bc4     addon.obj
 0002:00001bcc       $chain$1$?Close@@YAXAEBV?$FunctionCallbackInfo@VValue@v8@@@v8@@@Z 0000000180011bcc     addon.obj
 0002:00001be4       $chain$5$?Close@@YAXAEBV?$FunctionCallbackInfo@VValue@v8@@@v8@@@Z 0000000180011be4     addon.obj
 0002:00001be4       $chain$3$?Close@@YAXAEBV?$FunctionCallbackInfo@VValue@v8@@@v8@@@Z 0000000180011be4     addon.obj
 0002:00001bfc       $chain$6$?Close@@YAXAEBV?$FunctionCallbackInfo@VValue@v8@@@v8@@@Z 0000000180011bfc     addon.obj
 0002:00001c0c       $unwind$?SubscribeToSystemEvent@@YAXAEBV?$FunctionCallbackInfo@VValue@v8@@@v8@@@Z 0000000180011c0c     addon.obj
 0002:00001c0c       $unwind$?RequestSystemState@@YAXAEBV?$FunctionCallbackInfo@VValue@v8@@@v8@@@Z 0000000180011c0c     addon.obj
 0002:00001c14       $chain$1$?RequestSystemState@@YAXAEBV?$FunctionCallbackInfo@VValue@v8@@@v8@@@Z 0000000180011c14     addon.obj
 0002:00001c2c       $chain$2$?RequestSystemState@@YAXAEBV?$FunctionCallbackInfo@VValue@v8@@@v8@@@Z 0000000180011c2c     addon.obj
 0002:00001c40       $chain$3$?RequestSystemState@@YAXAEBV?$FunctionCallbackInfo@VValue@v8@@@v8@@@Z 0000000180011c40     addon.obj
 0002:00001c50       $chain$4$?RequestSystemState@@YAXAEBV?$FunctionCallbackInfo@VValue@v8@@@v8@@@Z 0000000180011c50     addon.obj
 0002:00001c60       $chain$2$?TransmitClientEvent@@YAXAEBV?$FunctionCallbackInfo@VValue@v8@@@v8@@@Z 0000000180011c60     addon.obj
 0002:00001c7c       $chain$3$?TransmitClientEvent@@YAXAEBV?$FunctionCallbackInfo@VValue@v8@@@v8@@@Z 0000000180011c7c     addon.obj
 0002:00001c8c       $chain$1$?SubscribeToSystemEvent@@YAXAEBV?$FunctionCallbackInfo@VValue@v8@@@v8@@@Z 0000000180011c8c     addon.obj
 0002:00001ca4       $chain$2$?SubscribeToSystemEvent@@YAXAEBV?$FunctionCallbackInfo@VValue@v8@@@v8@@@Z 0000000180011ca4     addon.obj
 0002:00001cb8       $chain$3$?SubscribeToSystemEvent@@YAXAEBV?$FunctionCallbackInfo@VValue@v8@@@v8@@@Z 0000000180011cb8     addon.obj
 0002:00001cc8       $chain$4$?SubscribeToSystemEvent@@YAXAEBV?$FunctionCallbackInfo@VValue@v8@@@v8@@@Z 0000000180011cc8     addon.obj
 0002:00001cd8       $unwind$?RequestDataOnSimObject@@YAXAEBV?$FunctionCallbackInfo@VValue@v8@@@v8@@@Z 0000000180011cd8     addon.obj
 0002:00001ce4       $chain$2$?RequestDataOnSimObject@@YAXAEBV?$FunctionCallbackInfo@VValue@v8@@@v8@@@Z 0000000180011ce4     addon.obj
 0002:00001d00       $chain$7$?RequestDataOnSimObject@@YAXAEBV?$FunctionCallbackInfo@VValue@v8@@@v8@@@Z 0000000180011d00     addon.obj
 0002:00001d24       $chain$8$?RequestDataOnSimObject@@YAXAEBV?$FunctionCallbackInfo@VValue@v8@@@v8@@@Z 0000000180011d24     addon.obj
 0002:00001d34       $chain$9$?RequestDataOnSimObject@@YAXAEBV?$FunctionCallbackInfo@VValue@v8@@@v8@@@Z 0000000180011d34     addon.obj
 0002:00001d44       $unwind$?SetDataOnSimObject@@YAXAEBV?$FunctionCallbackInfo@VValue@v8@@@v8@@@Z 0000000180011d44     addon.obj
 0002:00001d4c       $chain$1$?SetDataOnSimObject@@YAXAEBV?$FunctionCallbackInfo@VValue@v8@@@v8@@@Z 0000000180011d4c     addon.obj
 0002:00001d64       $chain$2$?SetDataOnSimObject@@YAXAEBV?$FunctionCallbackInfo@VValue@v8@@@v8@@@Z 0000000180011d64     addon.obj
 0002:00001d74       $unwind$?generateDataRequest@@YA?AUDataRequest@@PEAVIsolate@v8@@PEAXV?$Local@VArray@v8@@@3@PEAVCallback@Nan@@@Z 0000000180011d74     addon.obj
 0002:00001da0       $unwind$?SetAircraftInitialPosition@@YAXAEBV?$FunctionCallbackInfo@VValue@v8@@@v8@@@Z 0000000180011da0     addon.obj
 0002:00001db4       $chain$0$?SetAircraftInitialPosition@@YAXAEBV?$FunctionCallbackInfo@VValue@v8@@@v8@@@Z 0000000180011db4     addon.obj
 0002:00001dc8       $chain$7$?SetAircraftInitialPosition@@YAXAEBV?$FunctionCallbackInfo@VValue@v8@@@v8@@@Z 0000000180011dc8     addon.obj
 0002:00001df4       $chain$8$?SetAircraftInitialPosition@@YAXAEBV?$FunctionCallbackInfo@VValue@v8@@@v8@@@Z 0000000180011df4     addon.obj
 0002:00001e1c       $chain$9$?SetAircraftInitialPosition@@YAXAEBV?$FunctionCallbackInfo@VValue@v8@@@v8@@@Z 0000000180011e1c     addon.obj
 0002:00001e40       $chain$10$?SetAircraftInitialPosition@@YAXAEBV?$FunctionCallbackInfo@VValue@v8@@@v8@@@Z 0000000180011e40     addon.obj
 0002:00001e60       $chain$11$?SetAircraftInitialPosition@@YAXAEBV?$FunctionCallbackInfo@VValue@v8@@@v8@@@Z 0000000180011e60     addon.obj
 0002:00001e78       $chain$12$?SetAircraftInitialPosition@@YAXAEBV?$FunctionCallbackInfo@VValue@v8@@@v8@@@Z 0000000180011e78     addon.obj
 0002:00001e8c       $chain$13$?SetAircraftInitialPosition@@YAXAEBV?$FunctionCallbackInfo@VValue@v8@@@v8@@@Z 0000000180011e8c     addon.obj
 0002:00001e9c       $unwind$?Initialize@@YAXV?$Local@VObject@v8@@@v8@@@Z 0000000180011e9c     addon.obj
 0002:00001ea4       $unwind$??4?$vector@W4SIMCONNECT_DATATYPE@@V?$allocator@W4SIMCONNECT_DATATYPE@@@std@@@std@@QEAAAEAV01@AEBV01@@Z 0000000180011ea4     addon.obj
 0002:00001eb0       $chain$0$??4?$vector@W4SIMCONNECT_DATATYPE@@V?$allocator@W4SIMCONNECT_DATATYPE@@@std@@@std@@QEAAAEAV01@AEBV01@@Z 0000000180011eb0     addon.obj
 0002:00001ec4       $chain$1$??4?$vector@W4SIMCONNECT_DATATYPE@@V?$allocator@W4SIMCONNECT_DATATYPE@@@std@@@std@@QEAAAEAV01@AEBV01@@Z 0000000180011ec4     addon.obj
 0002:00001ed8       $chain$2$??4?$vector@W4SIMCONNECT_DATATYPE@@V?$allocator@W4SIMCONNECT_DATATYPE@@@std@@@std@@QEAAAEAV01@AEBV01@@Z 0000000180011ed8     addon.obj
 0002:00001ee8       $chain$3$??4?$vector@W4SIMCONNECT_DATATYPE@@V?$allocator@W4SIMCONNECT_DATATYPE@@@std@@@std@@QEAAAEAV01@AEBV01@@Z 0000000180011ee8     addon.obj
 0002:00001ef8       $unwind$??0?$vector@W4SIMCONNECT_DATATYPE@@V?$allocator@W4SIMCONNECT_DATATYPE@@@std@@@std@@QEAA@AEBV01@@Z 0000000180011ef8     addon.obj
 0002:00001f08       $chain$0$??0?$vector@W4SIMCONNECT_DATATYPE@@V?$allocator@W4SIMCONNECT_DATATYPE@@@std@@@std@@QEAA@AEBV01@@Z 0000000180011f08     addon.obj
 0002:00001f1c       $chain$1$??0?$vector@W4SIMCONNECT_DATATYPE@@V?$allocator@W4SIMCONNECT_DATATYPE@@@std@@@std@@QEAA@AEBV01@@Z 0000000180011f1c     addon.obj
 0002:00001f2c       $unwind$??4?$vector@V?$basic_string@DU?$char_traits@D@std@@V?$allocator@D@2@@std@@V?$allocator@V?$basic_string@DU?$char_traits@D@std@@V?$allocator@D@2@@std@@@2@@std@@QEAAAEAV01@AEBV01@@Z 0000000180011f2c     addon.obj
 0002:00001f2c       $unwind$?Init@CClient@@QEAAX_NTSOCKETHANDLE@@HI0@Z 0000000180011f2c     SimConnect:client.obj
 0002:00001f38       $chain$0$??4?$vector@V?$basic_string@DU?$char_traits@D@std@@V?$allocator@D@2@@std@@V?$allocator@V?$basic_string@DU?$char_traits@D@std@@V?$allocator@D@2@@std@@@2@@std@@QEAAAEAV01@AEBV01@@Z 0000000180011f38     addon.obj
 0002:00001f4c       $chain$1$??4?$vector@V?$basic_string@DU?$char_traits@D@std@@V?$allocator@D@2@@std@@V?$allocator@V?$basic_string@DU?$char_traits@D@std@@V?$allocator@D@2@@std@@@2@@std@@QEAAAEAV01@AEBV01@@Z 0000000180011f4c     addon.obj
 0002:00001f5c       $unwind$??_GCClient@@UEAAPEAXI@Z 0000000180011f5c     SimConnect:client.obj
 0002:00001f5c       $unwind$?_Erase@?$_Tree@V?$_Tmap_traits@W4SIMCONNECT_DATATYPE@@HU?$less@W4SIMCONNECT_DATATYPE@@@std@@V?$allocator@U?$pair@$$CBW4SIMCONNECT_DATATYPE@@H@std@@@3@$0A@@std@@@std@@IEAAXPEAU?$_Tree_node@U?$pair@$$CBW4SIMCONNECT_DATATYPE@@H@std@@PEAX@2@@Z 0000000180011f5c     addon.obj
 0002:00001f5c       $unwind$??$_Copy_unchecked@PEAV?$basic_string@DU?$char_traits@D@std@@V?$allocator@D@2@@std@@PEAV12@@std@@YAPEAV?$basic_string@DU?$char_traits@D@std@@V?$allocator@D@2@@0@PEAV10@00@Z 0000000180011f5c     addon.obj
 0002:00001f5c       $unwind$?_Erase@?$_Tree@V?$_Tmap_traits@W4SIMCONNECT_EXCEPTION@@PEBDU?$less@W4SIMCONNECT_EXCEPTION@@@std@@V?$allocator@U?$pair@$$CBW4SIMCONNECT_EXCEPTION@@PEBD@std@@@3@$0A@@std@@@std@@IEAAXPEAU?$_Tree_node@U?$pair@$$CBW4SIMCONNECT_EXCEPTION@@PEBD@std@@PEAX@2@@Z 0000000180011f5c     addon.obj
 0002:00001f5c       $unwind$?_Erase@?$_Tree@V?$_Tmap_traits@HPEAVCallback@Nan@@U?$less@H@std@@V?$allocator@U?$pair@$$CBHPEAVCallback@Nan@@@std@@@4@$0A@@std@@@std@@IEAAXPEAU?$_Tree_node@U?$pair@$$CBHPEAVCallback@Nan@@@std@@PEAX@2@@Z 0000000180011f5c     addon.obj
 0002:00001f5c       $unwind$?Reset@CClient@@UEAAXXZ 0000000180011f5c     SimConnect:client.obj
 0002:00001f5c       $unwind$?assign@?$basic_string@DU?$char_traits@D@std@@V?$allocator@D@2@@std@@QEAAAEAV12@PEBD_K@Z 0000000180011f5c     addon.obj
 0002:00001f5c       $unwind$_DllMainCRTStartup 0000000180011f5c     MSVCRT:dll_dllmain.obj
 0002:00001f5c       $unwind$SimConnect_Close   0000000180011f5c     SimConnect:SimConnectClient.obj
 0002:00001f5c       $unwind$_RTC_Initialize    0000000180011f5c     MSVCRT:_initsect_.obj
 0002:00001f5c       $unwind$_RTC_Terminate     0000000180011f5c     MSVCRT:_initsect_.obj
 0002:00001f5c       $unwind$?Deinit@CClient@@QEAAXXZ 0000000180011f5c     SimConnect:client.obj
 0002:00001f6c       $unwind$?assign@?$basic_string@DU?$char_traits@D@std@@V?$allocator@D@2@@std@@QEAAAEAV12@AEBV12@_K1@Z 0000000180011f6c     addon.obj
 0002:00001f6c       $unwind$?Read@CClient@@AEAA?AW4READRESULT@1@PEAVtagPacket@@@Z 0000000180011f6c     SimConnect:client.obj
 0002:00001f80       $unwind$?erase@?$_Tree@V?$_Tmap_traits@HPEAVCallback@Nan@@U?$less@H@std@@V?$allocator@U?$pair@$$CBHPEAVCallback@Nan@@@std@@@4@$0A@@std@@@std@@QEAA?AV?$_Tree_iterator@V?$_Tree_val@U?$_Tree_simple_types@U?$pair@$$CBHPEAVCallback@Nan@@@std@@@std@@@std@@@2@V?$_Tree_const_iterator@V?$_Tree_val@U?$_Tree_simple_types@U?$pair@$$CBHPEAVCallback@Nan@@@std@@@std@@@std@@@2@0@Z 0000000180011f80     addon.obj
 0002:00001f8c       $chain$0$?erase@?$_Tree@V?$_Tmap_traits@HPEAVCallback@Nan@@U?$less@H@std@@V?$allocator@U?$pair@$$CBHPEAVCallback@Nan@@@std@@@4@$0A@@std@@@std@@QEAA?AV?$_Tree_iterator@V?$_Tree_val@U?$_Tree_simple_types@U?$pair@$$CBHPEAVCallback@Nan@@@std@@@std@@@std@@@2@V?$_Tree_const_iterator@V?$_Tree_val@U?$_Tree_simple_types@U?$pair@$$CBHPEAVCallback@Nan@@@std@@@std@@@std@@@2@0@Z 0000000180011f8c     addon.obj
 0002:00001fa0       $chain$1$?erase@?$_Tree@V?$_Tmap_traits@HPEAVCallback@Nan@@U?$less@H@std@@V?$allocator@U?$pair@$$CBHPEAVCallback@Nan@@@std@@@4@$0A@@std@@@std@@QEAA?AV?$_Tree_iterator@V?$_Tree_val@U?$_Tree_simple_types@U?$pair@$$CBHPEAVCallback@Nan@@@std@@@std@@@std@@@2@V?$_Tree_const_iterator@V?$_Tree_val@U?$_Tree_simple_types@U?$pair@$$CBHPEAVCallback@Nan@@@std@@@std@@@std@@@2@0@Z 0000000180011fa0     addon.obj
 0002:00001fb0       $unwind$?erase@?$_Tree@V?$_Tmap_traits@W4SIMCONNECT_EXCEPTION@@PEBDU?$less@W4SIMCONNECT_EXCEPTION@@@std@@V?$allocator@U?$pair@$$CBW4SIMCONNECT_EXCEPTION@@PEBD@std@@@3@$0A@@std@@@std@@QEAA?AV?$_Tree_iterator@V?$_Tree_val@U?$_Tree_simple_types@U?$pair@$$CBW4SIMCONNECT_EXCEPTION@@PEBD@std@@@std@@@std@@@2@V?$_Tree_const_iterator@V?$_Tree_val@U?$_Tree_simple_types@U?$pair@$$CBW4SIMCONNECT_EXCEPTION@@PEBD@std@@@std@@@std@@@2@0@Z 0000000180011fb0     addon.obj
 0002:00001fb0       $unwind$?erase@?$_Tree@V?$_Tmap_traits@W4SIMCONNECT_DATATYPE@@HU?$less@W4SIMCONNECT_DATATYPE@@@std@@V?$allocator@U?$pair@$$CBW4SIMCONNECT_DATATYPE@@H@std@@@3@$0A@@std@@@std@@QEAA?AV?$_Tree_iterator@V?$_Tree_val@U?$_Tree_simple_types@U?$pair@$$CBW4SIMCONNECT_DATATYPE@@H@std@@@std@@@std@@@2@V?$_Tree_const_iterator@V?$_Tree_val@U?$_Tree_simple_types@U?$pair@$$CBW4SIMCONNECT_DATATYPE@@H@std@@@std@@@std@@@2@0@Z 0000000180011fb0     addon.obj
 0002:00001fb0       $unwind$?erase@?$_Tree@V?$_Tmap_traits@HUDataRequest@@U?$less@H@std@@V?$allocator@U?$pair@$$CBHUDataRequest@@@std@@@3@$0A@@std@@@std@@QEAA?AV?$_Tree_iterator@V?$_Tree_val@U?$_Tree_simple_types@U?$pair@$$CBHUDataRequest@@@std@@@std@@@std@@@2@V?$_Tree_const_iterator@V?$_Tree_val@U?$_Tree_simple_types@U?$pair@$$CBHUDataRequest@@@std@@@std@@@std@@@2@0@Z 0000000180011fb0     addon.obj
 0002:00001fb8       $unwind$?_Reallocate@?$vector@W4SIMCONNECT_DATATYPE@@V?$allocator@W4SIMCONNECT_DATATYPE@@@std@@@std@@IEAAX_K@Z 0000000180011fb8     addon.obj
 0002:00001fcc       $unwind$?_Reallocate@?$vector@V?$basic_string@DU?$char_traits@D@std@@V?$allocator@D@2@@std@@V?$allocator@V?$basic_string@DU?$char_traits@D@std@@V?$allocator@D@2@@std@@@2@@std@@IEAAX_K@Z 0000000180011fcc     addon.obj
 0002:00001fe0       $chain$2$?_Reallocate@?$vector@V?$basic_string@DU?$char_traits@D@std@@V?$allocator@D@2@@std@@V?$allocator@V?$basic_string@DU?$char_traits@D@std@@V?$allocator@D@2@@std@@@2@@std@@IEAAX_K@Z 0000000180011fe0     addon.obj
 0002:00001ff8       $chain$3$?_Reallocate@?$vector@V?$basic_string@DU?$char_traits@D@std@@V?$allocator@D@2@@std@@V?$allocator@V?$basic_string@DU?$char_traits@D@std@@V?$allocator@D@2@@std@@@2@@std@@IEAAX_K@Z 0000000180011ff8     addon.obj
 0002:00002008       $unwind$?erase@?$_Tree@V?$_Tmap_traits@HPEAVCallback@Nan@@U?$less@H@std@@V?$allocator@U?$pair@$$CBHPEAVCallback@Nan@@@std@@@4@$0A@@std@@@std@@QEAA?AV?$_Tree_iterator@V?$_Tree_val@U?$_Tree_simple_types@U?$pair@$$CBHPEAVCallback@Nan@@@std@@@std@@@std@@@2@V?$_Tree_const_iterator@V?$_Tree_val@U?$_Tree_simple_types@U?$pair@$$CBHPEAVCallback@Nan@@@std@@@std@@@std@@@2@@Z 0000000180012008     addon.obj
 0002:00002014       $chain$1$?erase@?$_Tree@V?$_Tmap_traits@HPEAVCallback@Nan@@U?$less@H@std@@V?$allocator@U?$pair@$$CBHPEAVCallback@Nan@@@std@@@4@$0A@@std@@@std@@QEAA?AV?$_Tree_iterator@V?$_Tree_val@U?$_Tree_simple_types@U?$pair@$$CBHPEAVCallback@Nan@@@std@@@std@@@std@@@2@V?$_Tree_const_iterator@V?$_Tree_val@U?$_Tree_simple_types@U?$pair@$$CBHPEAVCallback@Nan@@@std@@@std@@@std@@@2@@Z 0000000180012014     addon.obj
 0002:0000202c       $chain$2$?erase@?$_Tree@V?$_Tmap_traits@HPEAVCallback@Nan@@U?$less@H@std@@V?$allocator@U?$pair@$$CBHPEAVCallback@Nan@@@std@@@4@$0A@@std@@@std@@QEAA?AV?$_Tree_iterator@V?$_Tree_val@U?$_Tree_simple_types@U?$pair@$$CBHPEAVCallback@Nan@@@std@@@std@@@std@@@2@V?$_Tree_const_iterator@V?$_Tree_val@U?$_Tree_simple_types@U?$pair@$$CBHPEAVCallback@Nan@@@std@@@std@@@std@@@2@@Z 000000018001202c     addon.obj
 0002:0000203c       $unwind$?erase@?$_Tree@V?$_Tmap_traits@HUDataRequest@@U?$less@H@std@@V?$allocator@U?$pair@$$CBHUDataRequest@@@std@@@3@$0A@@std@@@std@@QEAA?AV?$_Tree_iterator@V?$_Tree_val@U?$_Tree_simple_types@U?$pair@$$CBHUDataRequest@@@std@@@std@@@std@@@2@V?$_Tree_const_iterator@V?$_Tree_val@U?$_Tree_simple_types@U?$pair@$$CBHUDataRequest@@@std@@@std@@@std@@@2@@Z 000000018001203c     addon.obj
 0002:0000204c       $unwind$?erase@?$_Tree@V?$_Tmap_traits@W4SIMCONNECT_EXCEPTION@@PEBDU?$less@W4SIMCONNECT_EXCEPTION@@@std@@V?$allocator@U?$pair@$$CBW4SIMCONNECT_EXCEPTION@@PEBD@std@@@3@$0A@@std@@@std@@QEAA?AV?$_Tree_iterator@V?$_Tree_val@U?$_Tree_simple_types@U?$pair@$$CBW4SIMCONNECT_EXCEPTION@@PEBD@std@@@std@@@std@@@2@V?$_Tree_const_iterator@V?$_Tree_val@U?$_Tree_simple_types@U?$pair@$$CBW4SIMCONNECT_EXCEPTION@@PEBD@std@@@std@@@std@@@2@@Z 000000018001204c     addon.obj
 0002:0000204c       $unwind$?erase@?$_Tree@V?$_Tmap_traits@W4SIMCONNECT_DATATYPE@@HU?$less@W4SIMCONNECT_DATATYPE@@@std@@V?$allocator@U?$pair@$$CBW4SIMCONNECT_DATATYPE@@H@std@@@3@$0A@@std@@@std@@QEAA?AV?$_Tree_iterator@V?$_Tree_val@U?$_Tree_simple_types@U?$pair@$$CBW4SIMCONNECT_DATATYPE@@H@std@@@std@@@std@@@2@V?$_Tree_const_iterator@V?$_Tree_val@U?$_Tree_simple_types@U?$pair@$$CBW4SIMCONNECT_DATATYPE@@H@std@@@std@@@std@@@2@@Z 000000018001204c     addon.obj
 0002:00002054       $chain$1$?erase@?$_Tree@V?$_Tmap_traits@W4SIMCONNECT_DATATYPE@@HU?$less@W4SIMCONNECT_DATATYPE@@@std@@V?$allocator@U?$pair@$$CBW4SIMCONNECT_DATATYPE@@H@std@@@3@$0A@@std@@@std@@QEAA?AV?$_Tree_iterator@V?$_Tree_val@U?$_Tree_simple_types@U?$pair@$$CBW4SIMCONNECT_DATATYPE@@H@std@@@std@@@std@@@2@V?$_Tree_const_iterator@V?$_Tree_val@U?$_Tree_simple_types@U?$pair@$$CBW4SIMCONNECT_DATATYPE@@H@std@@@std@@@std@@@2@@Z 0000000180012054     addon.obj
 0002:0000206c       $chain$2$?erase@?$_Tree@V?$_Tmap_traits@W4SIMCONNECT_DATATYPE@@HU?$less@W4SIMCONNECT_DATATYPE@@@std@@V?$allocator@U?$pair@$$CBW4SIMCONNECT_DATATYPE@@H@std@@@3@$0A@@std@@@std@@QEAA?AV?$_Tree_iterator@V?$_Tree_val@U?$_Tree_simple_types@U?$pair@$$CBW4SIMCONNECT_DATATYPE@@H@std@@@std@@@std@@@2@V?$_Tree_const_iterator@V?$_Tree_val@U?$_Tree_simple_types@U?$pair@$$CBW4SIMCONNECT_DATATYPE@@H@std@@@std@@@std@@@2@@Z 000000018001206c     addon.obj
 0002:0000207c       $chain$1$?erase@?$_Tree@V?$_Tmap_traits@W4SIMCONNECT_EXCEPTION@@PEBDU?$less@W4SIMCONNECT_EXCEPTION@@@std@@V?$allocator@U?$pair@$$CBW4SIMCONNECT_EXCEPTION@@PEBD@std@@@3@$0A@@std@@@std@@QEAA?AV?$_Tree_iterator@V?$_Tree_val@U?$_Tree_simple_types@U?$pair@$$CBW4SIMCONNECT_EXCEPTION@@PEBD@std@@@std@@@std@@@2@V?$_Tree_const_iterator@V?$_Tree_val@U?$_Tree_simple_types@U?$pair@$$CBW4SIMCONNECT_EXCEPTION@@PEBD@std@@@std@@@std@@@2@@Z 000000018001207c     addon.obj
 0002:00002094       $chain$2$?erase@?$_Tree@V?$_Tmap_traits@W4SIMCONNECT_EXCEPTION@@PEBDU?$less@W4SIMCONNECT_EXCEPTION@@@std@@V?$allocator@U?$pair@$$CBW4SIMCONNECT_EXCEPTION@@PEBD@std@@@3@$0A@@std@@@std@@QEAA?AV?$_Tree_iterator@V?$_Tree_val@U?$_Tree_simple_types@U?$pair@$$CBW4SIMCONNECT_EXCEPTION@@PEBD@std@@@std@@@std@@@2@V?$_Tree_const_iterator@V?$_Tree_val@U?$_Tree_simple_types@U?$pair@$$CBW4SIMCONNECT_EXCEPTION@@PEBD@std@@@std@@@std@@@2@@Z 0000000180012094     addon.obj
 0002:000020a4       $unwind$?_Copy@?$basic_string@DU?$char_traits@D@std@@V?$allocator@D@2@@std@@QEAAX_K0@Z 00000001800120a4     addon.obj
 0002:000020b8       $unwind$??1ClientClient@@UEAA@XZ 00000001800120b8     SimConnect:commClient.obj
 0002:000020b8       $unwind$?_Erase@?$_Tree@V?$_Tmap_traits@HUDataRequest@@U?$less@H@std@@V?$allocator@U?$pair@$$CBHUDataRequest@@@std@@@3@$0A@@std@@@std@@IEAAXPEAU?$_Tree_node@U?$pair@$$CBHUDataRequest@@@std@@PEAX@2@@Z 00000001800120b8     addon.obj
 0002:000020c8       $chain$0$?_Erase@?$_Tree@V?$_Tmap_traits@HUDataRequest@@U?$less@H@std@@V?$allocator@U?$pair@$$CBHUDataRequest@@@std@@@3@$0A@@std@@@std@@IEAAXPEAU?$_Tree_node@U?$pair@$$CBHUDataRequest@@@std@@PEAX@2@@Z 00000001800120c8     addon.obj
 0002:000020dc       $chain$1$?_Erase@?$_Tree@V?$_Tmap_traits@HUDataRequest@@U?$less@H@std@@V?$allocator@U?$pair@$$CBHUDataRequest@@@std@@@3@$0A@@std@@@std@@IEAAXPEAU?$_Tree_node@U?$pair@$$CBHUDataRequest@@@std@@PEAX@2@@Z 00000001800120dc     addon.obj
 0002:000020ec       $chain$2$?_Erase@?$_Tree@V?$_Tmap_traits@HUDataRequest@@U?$less@H@std@@V?$allocator@U?$pair@$$CBHUDataRequest@@@std@@@3@$0A@@std@@@std@@IEAAXPEAU?$_Tree_node@U?$pair@$$CBHUDataRequest@@@std@@PEAX@2@@Z 00000001800120ec     addon.obj
 0002:00002100       $unwind$??$insert@PEBU?$pair@$$CBW4SIMCONNECT_DATATYPE@@H@std@@@?$_Tree@V?$_Tmap_traits@W4SIMCONNECT_DATATYPE@@HU?$less@W4SIMCONNECT_DATATYPE@@@std@@V?$allocator@U?$pair@$$CBW4SIMCONNECT_DATATYPE@@H@std@@@3@$0A@@std@@@std@@QEAAXPEBU?$pair@$$CBW4SIMCONNECT_DATATYPE@@H@1@0@Z 0000000180012100     addon.obj
 0002:00002100       $unwind$??$insert@PEBU?$pair@$$CBW4SIMCONNECT_EXCEPTION@@PEBD@std@@@?$_Tree@V?$_Tmap_traits@W4SIMCONNECT_EXCEPTION@@PEBDU?$less@W4SIMCONNECT_EXCEPTION@@@std@@V?$allocator@U?$pair@$$CBW4SIMCONNECT_EXCEPTION@@PEBD@std@@@3@$0A@@std@@@std@@QEAAXPEBU?$pair@$$CBW4SIMCONNECT_EXCEPTION@@PEBD@1@0@Z 0000000180012100     addon.obj
 0002:0000210c       $chain$0$??$insert@PEBU?$pair@$$CBW4SIMCONNECT_DATATYPE@@H@std@@@?$_Tree@V?$_Tmap_traits@W4SIMCONNECT_DATATYPE@@HU?$less@W4SIMCONNECT_DATATYPE@@@std@@V?$allocator@U?$pair@$$CBW4SIMCONNECT_DATATYPE@@H@std@@@3@$0A@@std@@@std@@QEAAXPEBU?$pair@$$CBW4SIMCONNECT_DATATYPE@@H@1@0@Z 000000018001210c     addon.obj
 0002:00002120       $chain$1$??$insert@PEBU?$pair@$$CBW4SIMCONNECT_DATATYPE@@H@std@@@?$_Tree@V?$_Tmap_traits@W4SIMCONNECT_DATATYPE@@HU?$less@W4SIMCONNECT_DATATYPE@@@std@@V?$allocator@U?$pair@$$CBW4SIMCONNECT_DATATYPE@@H@std@@@3@$0A@@std@@@std@@QEAAXPEBU?$pair@$$CBW4SIMCONNECT_DATATYPE@@H@1@0@Z 0000000180012120     addon.obj
 0002:00002130       $chain$0$??$insert@PEBU?$pair@$$CBW4SIMCONNECT_EXCEPTION@@PEBD@std@@@?$_Tree@V?$_Tmap_traits@W4SIMCONNECT_EXCEPTION@@PEBDU?$less@W4SIMCONNECT_EXCEPTION@@@std@@V?$allocator@U?$pair@$$CBW4SIMCONNECT_EXCEPTION@@PEBD@std@@@3@$0A@@std@@@std@@QEAAXPEBU?$pair@$$CBW4SIMCONNECT_EXCEPTION@@PEBD@1@0@Z 0000000180012130     addon.obj
 0002:00002144       $chain$1$??$insert@PEBU?$pair@$$CBW4SIMCONNECT_EXCEPTION@@PEBD@std@@@?$_Tree@V?$_Tmap_traits@W4SIMCONNECT_EXCEPTION@@PEBDU?$less@W4SIMCONNECT_EXCEPTION@@@std@@V?$allocator@U?$pair@$$CBW4SIMCONNECT_EXCEPTION@@PEBD@std@@@3@$0A@@std@@@std@@QEAAXPEBU?$pair@$$CBW4SIMCONNECT_EXCEPTION@@PEBD@1@0@Z 0000000180012144     addon.obj
 0002:00002154       $unwind$??$_Try_emplace@W4SIMCONNECT_EXCEPTION@@$$V@?$map@W4SIMCONNECT_EXCEPTION@@PEBDU?$less@W4SIMCONNECT_EXCEPTION@@@std@@V?$allocator@U?$pair@$$CBW4SIMCONNECT_EXCEPTION@@PEBD@std@@@3@@std@@QEAA?AU?$pair@V?$_Tree_iterator@V?$_Tree_val@U?$_Tree_simple_types@U?$pair@$$CBW4SIMCONNECT_EXCEPTION@@PEBD@std@@@std@@@std@@@std@@_N@1@$$QEAW4SIMCONNECT_EXCEPTION@@@Z 0000000180012154     addon.obj
 0002:00002154       $unwind$??$_Try_emplace@AEBH$$V@?$map@HUDataRequest@@U?$less@H@std@@V?$allocator@U?$pair@$$CBHUDataRequest@@@std@@@3@@std@@QEAA?AU?$pair@V?$_Tree_iterator@V?$_Tree_val@U?$_Tree_simple_types@U?$pair@$$CBHUDataRequest@@@std@@@std@@@std@@@std@@_N@1@AEBH@Z 0000000180012154     addon.obj
 0002:00002154       $unwind$??$_Try_emplace@AEBW4SIMCONNECT_DATATYPE@@$$V@?$map@W4SIMCONNECT_DATATYPE@@HU?$less@W4SIMCONNECT_DATATYPE@@@std@@V?$allocator@U?$pair@$$CBW4SIMCONNECT_DATATYPE@@H@std@@@3@@std@@QEAA?AU?$pair@V?$_Tree_iterator@V?$_Tree_val@U?$_Tree_simple_types@U?$pair@$$CBW4SIMCONNECT_DATATYPE@@H@std@@@std@@@std@@@std@@_N@1@AEBW4SIMCONNECT_DATATYPE@@@Z 0000000180012154     addon.obj
 0002:00002164       $unwind$??$_Destroy_range1@V?$allocator@V?$basic_string@DU?$char_traits@D@std@@V?$allocator@D@2@@std@@@std@@PEAV?$basic_string@DU?$char_traits@D@std@@V?$allocator@D@2@@2@@std@@YAXPEAV?$basic_string@DU?$char_traits@D@std@@V?$allocator@D@2@@0@0AEAU?$_Wrap_alloc@V?$allocator@V?$basic_string@DU?$char_traits@D@std@@V?$allocator@D@2@@std@@@std@@@0@U?$integral_constant@_N$0A@@0@@Z 0000000180012164     addon.obj
 0002:00002164       $unwind$?DoneIO@CClient@@SAXKKPEAU_OVERLAPPED@@@Z 0000000180012164     SimConnect:client.obj
 0002:0000216c       $chain$1$??$_Destroy_range1@V?$allocator@V?$basic_string@DU?$char_traits@D@std@@V?$allocator@D@2@@std@@@std@@PEAV?$basic_string@DU?$char_traits@D@std@@V?$allocator@D@2@@2@@std@@YAXPEAV?$basic_string@DU?$char_traits@D@std@@V?$allocator@D@2@@0@0AEAU?$_Wrap_alloc@V?$allocator@V?$basic_string@DU?$char_traits@D@std@@V?$allocator@D@2@@std@@@std@@@0@U?$integral_constant@_N$0A@@0@@Z 000000018001216c     addon.obj
 0002:00002184       $chain$2$??$_Destroy_range1@V?$allocator@V?$basic_string@DU?$char_traits@D@std@@V?$allocator@D@2@@std@@@std@@PEAV?$basic_string@DU?$char_traits@D@std@@V?$allocator@D@2@@2@@std@@YAXPEAV?$basic_string@DU?$char_traits@D@std@@V?$allocator@D@2@@0@0AEAU?$_Wrap_alloc@V?$allocator@V?$basic_string@DU?$char_traits@D@std@@V?$allocator@D@2@@std@@@std@@@0@U?$integral_constant@_N$0A@@0@@Z 0000000180012184     addon.obj
 0002:00002194       $chain$3$??$_Destroy_range1@V?$allocator@V?$basic_string@DU?$char_traits@D@std@@V?$allocator@D@2@@std@@@std@@PEAV?$basic_string@DU?$char_traits@D@std@@V?$allocator@D@2@@2@@std@@YAXPEAV?$basic_string@DU?$char_traits@D@std@@V?$allocator@D@2@@0@0AEAU?$_Wrap_alloc@V?$allocator@V?$basic_string@DU?$char_traits@D@std@@V?$allocator@D@2@@std@@@std@@@0@U?$integral_constant@_N$0A@@0@@Z 0000000180012194     addon.obj
 0002:000021ac       $unwind$??$_Uninitialized_copy_al_unchecked@PEAV?$basic_string@DU?$char_traits@D@std@@V?$allocator@D@2@@std@@PEAV12@V?$allocator@V?$basic_string@DU?$char_traits@D@std@@V?$allocator@D@2@@std@@@2@@std@@YAPEAV?$basic_string@DU?$char_traits@D@std@@V?$allocator@D@2@@0@PEAV10@00AEAU?$_Wrap_alloc@V?$allocator@V?$basic_string@DU?$char_traits@D@std@@V?$allocator@D@2@@std@@@std@@@0@@Z 00000001800121ac     addon.obj
 0002:000021ac       $unwind$??$_Uninitialized_copy_al_unchecked@PEBV?$basic_string@DU?$char_traits@D@std@@V?$allocator@D@2@@std@@PEAV12@V?$allocator@V?$basic_string@DU?$char_traits@D@std@@V?$allocator@D@2@@std@@@2@@std@@YAPEAV?$basic_string@DU?$char_traits@D@std@@V?$allocator@D@2@@0@PEBV10@0PEAV10@AEAU?$_Wrap_alloc@V?$allocator@V?$basic_string@DU?$char_traits@D@std@@V?$allocator@D@2@@std@@@std@@@0@@Z 00000001800121ac     addon.obj
 0002:000021bc       $chain$1$??$_Uninitialized_copy_al_unchecked@PEBV?$basic_string@DU?$char_traits@D@std@@V?$allocator@D@2@@std@@PEAV12@V?$allocator@V?$basic_string@DU?$char_traits@D@std@@V?$allocator@D@2@@std@@@2@@std@@YAPEAV?$basic_string@DU?$char_traits@D@std@@V?$allocator@D@2@@0@PEBV10@0PEAV10@AEAU?$_Wrap_alloc@V?$allocator@V?$basic_string@DU?$char_traits@D@std@@V?$allocator@D@2@@std@@@std@@@0@@Z 00000001800121bc     addon.obj
 0002:000021bc       $chain$1$??$_Uninitialized_copy_al_unchecked@PEAV?$basic_string@DU?$char_traits@D@std@@V?$allocator@D@2@@std@@PEAV12@V?$allocator@V?$basic_string@DU?$char_traits@D@std@@V?$allocator@D@2@@std@@@2@@std@@YAPEAV?$basic_string@DU?$char_traits@D@std@@V?$allocator@D@2@@0@PEAV10@00AEAU?$_Wrap_alloc@V?$allocator@V?$basic_string@DU?$char_traits@D@std@@V?$allocator@D@2@@std@@@std@@@0@@Z 00000001800121bc     addon.obj
 0002:000021d4       $chain$2$??$_Uninitialized_copy_al_unchecked@PEBV?$basic_string@DU?$char_traits@D@std@@V?$allocator@D@2@@std@@PEAV12@V?$allocator@V?$basic_string@DU?$char_traits@D@std@@V?$allocator@D@2@@std@@@2@@std@@YAPEAV?$basic_string@DU?$char_traits@D@std@@V?$allocator@D@2@@0@PEBV10@0PEAV10@AEAU?$_Wrap_alloc@V?$allocator@V?$basic_string@DU?$char_traits@D@std@@V?$allocator@D@2@@std@@@std@@@0@@Z 00000001800121d4     addon.obj
 0002:000021d4       $chain$2$??$_Uninitialized_copy_al_unchecked@PEAV?$basic_string@DU?$char_traits@D@std@@V?$allocator@D@2@@std@@PEAV12@V?$allocator@V?$basic_string@DU?$char_traits@D@std@@V?$allocator@D@2@@std@@@2@@std@@YAPEAV?$basic_string@DU?$char_traits@D@std@@V?$allocator@D@2@@0@PEAV10@00AEAU?$_Wrap_alloc@V?$allocator@V?$basic_string@DU?$char_traits@D@std@@V?$allocator@D@2@@std@@@std@@@0@@Z 00000001800121d4     addon.obj
 0002:000021e4       $unwind$??$_Insert_hint@AEAU?$pair@$$CBHPEAVCallback@Nan@@@std@@PEAU?$_Tree_node@U?$pair@$$CBHPEAVCallback@Nan@@@std@@PEAX@2@@?$_Tree@V?$_Tmap_traits@HPEAVCallback@Nan@@U?$less@H@std@@V?$allocator@U?$pair@$$CBHPEAVCallback@Nan@@@std@@@4@$0A@@std@@@std@@IEAA?AV?$_Tree_iterator@V?$_Tree_val@U?$_Tree_simple_types@U?$pair@$$CBHPEAVCallback@Nan@@@std@@@std@@@std@@@1@V?$_Tree_const_iterator@V?$_Tree_val@U?$_Tree_simple_types@U?$pair@$$CBHPEAVCallback@Nan@@@std@@@std@@@std@@@1@AEAU?$pair@$$CBHPEAVCallback@Nan@@@1@PEAU?$_Tree_node@U?$pair@$$CBHPEAVCallback@Nan@@@std@@PEAX@1@@Z 00000001800121e4     addon.obj
 0002:000021f0       $chain$0$??$_Insert_hint@AEAU?$pair@$$CBHPEAVCallback@Nan@@@std@@PEAU?$_Tree_node@U?$pair@$$CBHPEAVCallback@Nan@@@std@@PEAX@2@@?$_Tree@V?$_Tmap_traits@HPEAVCallback@Nan@@U?$less@H@std@@V?$allocator@U?$pair@$$CBHPEAVCallback@Nan@@@std@@@4@$0A@@std@@@std@@IEAA?AV?$_Tree_iterator@V?$_Tree_val@U?$_Tree_simple_types@U?$pair@$$CBHPEAVCallback@Nan@@@std@@@std@@@std@@@1@V?$_Tree_const_iterator@V?$_Tree_val@U?$_Tree_simple_types@U?$pair@$$CBHPEAVCallback@Nan@@@std@@@std@@@std@@@1@AEAU?$pair@$$CBHPEAVCallback@Nan@@@1@PEAU?$_Tree_node@U?$pair@$$CBHPEAVCallback@Nan@@@std@@PEAX@1@@Z 00000001800121f0     addon.obj
 0002:00002204       $chain$4$??$_Insert_hint@AEAU?$pair@$$CBHPEAVCallback@Nan@@@std@@PEAU?$_Tree_node@U?$pair@$$CBHPEAVCallback@Nan@@@std@@PEAX@2@@?$_Tree@V?$_Tmap_traits@HPEAVCallback@Nan@@U?$less@H@std@@V?$allocator@U?$pair@$$CBHPEAVCallback@Nan@@@std@@@4@$0A@@std@@@std@@IEAA?AV?$_Tree_iterator@V?$_Tree_val@U?$_Tree_simple_types@U?$pair@$$CBHPEAVCallback@Nan@@@std@@@std@@@std@@@1@V?$_Tree_const_iterator@V?$_Tree_val@U?$_Tree_simple_types@U?$pair@$$CBHPEAVCallback@Nan@@@std@@@std@@@std@@@1@AEAU?$pair@$$CBHPEAVCallback@Nan@@@1@PEAU?$_Tree_node@U?$pair@$$CBHPEAVCallback@Nan@@@std@@PEAX@1@@Z 0000000180012204     addon.obj
 0002:00002204       $chain$8$??$_Insert_hint@AEAU?$pair@$$CBHPEAVCallback@Nan@@@std@@PEAU?$_Tree_node@U?$pair@$$CBHPEAVCallback@Nan@@@std@@PEAX@2@@?$_Tree@V?$_Tmap_traits@HPEAVCallback@Nan@@U?$less@H@std@@V?$allocator@U?$pair@$$CBHPEAVCallback@Nan@@@std@@@4@$0A@@std@@@std@@IEAA?AV?$_Tree_iterator@V?$_Tree_val@U?$_Tree_simple_types@U?$pair@$$CBHPEAVCallback@Nan@@@std@@@std@@@std@@@1@V?$_Tree_const_iterator@V?$_Tree_val@U?$_Tree_simple_types@U?$pair@$$CBHPEAVCallback@Nan@@@std@@@std@@@std@@@1@AEAU?$pair@$$CBHPEAVCallback@Nan@@@1@PEAU?$_Tree_node@U?$pair@$$CBHPEAVCallback@Nan@@@std@@PEAX@1@@Z 0000000180012204     addon.obj
 0002:00002204       $chain$6$??$_Insert_hint@AEAU?$pair@$$CBHPEAVCallback@Nan@@@std@@PEAU?$_Tree_node@U?$pair@$$CBHPEAVCallback@Nan@@@std@@PEAX@2@@?$_Tree@V?$_Tmap_traits@HPEAVCallback@Nan@@U?$less@H@std@@V?$allocator@U?$pair@$$CBHPEAVCallback@Nan@@@std@@@4@$0A@@std@@@std@@IEAA?AV?$_Tree_iterator@V?$_Tree_val@U?$_Tree_simple_types@U?$pair@$$CBHPEAVCallback@Nan@@@std@@@std@@@std@@@1@V?$_Tree_const_iterator@V?$_Tree_val@U?$_Tree_simple_types@U?$pair@$$CBHPEAVCallback@Nan@@@std@@@std@@@std@@@1@AEAU?$pair@$$CBHPEAVCallback@Nan@@@1@PEAU?$_Tree_node@U?$pair@$$CBHPEAVCallback@Nan@@@std@@PEAX@1@@Z 0000000180012204     addon.obj
 0002:00002204       $chain$2$??$_Insert_hint@AEAU?$pair@$$CBHPEAVCallback@Nan@@@std@@PEAU?$_Tree_node@U?$pair@$$CBHPEAVCallback@Nan@@@std@@PEAX@2@@?$_Tree@V?$_Tmap_traits@HPEAVCallback@Nan@@U?$less@H@std@@V?$allocator@U?$pair@$$CBHPEAVCallback@Nan@@@std@@@4@$0A@@std@@@std@@IEAA?AV?$_Tree_iterator@V?$_Tree_val@U?$_Tree_simple_types@U?$pair@$$CBHPEAVCallback@Nan@@@std@@@std@@@std@@@1@V?$_Tree_const_iterator@V?$_Tree_val@U?$_Tree_simple_types@U?$pair@$$CBHPEAVCallback@Nan@@@std@@@std@@@std@@@1@AEAU?$pair@$$CBHPEAVCallback@Nan@@@1@PEAU?$_Tree_node@U?$pair@$$CBHPEAVCallback@Nan@@@std@@PEAX@1@@Z 0000000180012204     addon.obj
 0002:00002218       $unwind$??$_Insert_nohint@AEAU?$pair@$$CBW4SIMCONNECT_DATATYPE@@H@std@@PEAU?$_Tree_node@U?$pair@$$CBW4SIMCONNECT_DATATYPE@@H@std@@PEAX@2@@?$_Tree@V?$_Tmap_traits@W4SIMCONNECT_DATATYPE@@HU?$less@W4SIMCONNECT_DATATYPE@@@std@@V?$allocator@U?$pair@$$CBW4SIMCONNECT_DATATYPE@@H@std@@@3@$0A@@std@@@std@@IEAA?AU?$pair@V?$_Tree_iterator@V?$_Tree_val@U?$_Tree_simple_types@U?$pair@$$CBW4SIMCONNECT_DATATYPE@@H@std@@@std@@@std@@@std@@_N@1@_NAEAU?$pair@$$CBW4SIMCONNECT_DATATYPE@@H@1@PEAU?$_Tree_node@U?$pair@$$CBW4SIMCONNECT_DATATYPE@@H@std@@PEAX@1@@Z 0000000180012218     addon.obj
 0002:00002218       $unwind$??$_Insert_nohint@AEAU?$pair@$$CBW4SIMCONNECT_EXCEPTION@@PEBD@std@@PEAU?$_Tree_node@U?$pair@$$CBW4SIMCONNECT_EXCEPTION@@PEBD@std@@PEAX@2@@?$_Tree@V?$_Tmap_traits@W4SIMCONNECT_EXCEPTION@@PEBDU?$less@W4SIMCONNECT_EXCEPTION@@@std@@V?$allocator@U?$pair@$$CBW4SIMCONNECT_EXCEPTION@@PEBD@std@@@3@$0A@@std@@@std@@IEAA?AU?$pair@V?$_Tree_iterator@V?$_Tree_val@U?$_Tree_simple_types@U?$pair@$$CBW4SIMCONNECT_EXCEPTION@@PEBD@std@@@std@@@std@@@std@@_N@1@_NAEAU?$pair@$$CBW4SIMCONNECT_EXCEPTION@@PEBD@1@PEAU?$_Tree_node@U?$pair@$$CBW4SIMCONNECT_EXCEPTION@@PEBD@std@@PEAX@1@@Z 0000000180012218     addon.obj
 0002:00002224       $unwind$??$_Insert_nohint@AEAU?$pair@$$CBHPEAVCallback@Nan@@@std@@PEAU?$_Tree_node@U?$pair@$$CBHPEAVCallback@Nan@@@std@@PEAX@2@@?$_Tree@V?$_Tmap_traits@HPEAVCallback@Nan@@U?$less@H@std@@V?$allocator@U?$pair@$$CBHPEAVCallback@Nan@@@std@@@4@$0A@@std@@@std@@IEAA?AU?$pair@V?$_Tree_iterator@V?$_Tree_val@U?$_Tree_simple_types@U?$pair@$$CBHPEAVCallback@Nan@@@std@@@std@@@std@@@std@@_N@1@_NAEAU?$pair@$$CBHPEAVCallback@Nan@@@1@PEAU?$_Tree_node@U?$pair@$$CBHPEAVCallback@Nan@@@std@@PEAX@1@@Z 0000000180012224     addon.obj
 0002:00002230       $chain$0$??$_Insert_at@AEAU?$pair@$$CBHUDataRequest@@@std@@PEAU?$_Tree_node@U?$pair@$$CBHUDataRequest@@@std@@PEAX@2@@?$_Tree@V?$_Tmap_traits@HUDataRequest@@U?$less@H@std@@V?$allocator@U?$pair@$$CBHUDataRequest@@@std@@@3@$0A@@std@@@std@@IEAA?AV?$_Tree_iterator@V?$_Tree_val@U?$_Tree_simple_types@U?$pair@$$CBHUDataRequest@@@std@@@std@@@std@@@1@_NPEAU?$_Tree_node@U?$pair@$$CBHUDataRequest@@@std@@PEAX@1@AEAU?$pair@$$CBHUDataRequest@@@1@1@Z 0000000180012230     addon.obj
 0002:00002244       $chain$1$??$_Insert_at@AEAU?$pair@$$CBHUDataRequest@@@std@@PEAU?$_Tree_node@U?$pair@$$CBHUDataRequest@@@std@@PEAX@2@@?$_Tree@V?$_Tmap_traits@HUDataRequest@@U?$less@H@std@@V?$allocator@U?$pair@$$CBHUDataRequest@@@std@@@3@$0A@@std@@@std@@IEAA?AV?$_Tree_iterator@V?$_Tree_val@U?$_Tree_simple_types@U?$pair@$$CBHUDataRequest@@@std@@@std@@@std@@@1@_NPEAU?$_Tree_node@U?$pair@$$CBHUDataRequest@@@std@@PEAX@1@AEAU?$pair@$$CBHUDataRequest@@@1@1@Z 0000000180012244     addon.obj
 0002:00002254       $unwind$??$_Insert_nohint@AEAU?$pair@$$CBHUDataRequest@@@std@@PEAU?$_Tree_node@U?$pair@$$CBHUDataRequest@@@std@@PEAX@2@@?$_Tree@V?$_Tmap_traits@HUDataRequest@@U?$less@H@std@@V?$allocator@U?$pair@$$CBHUDataRequest@@@std@@@3@$0A@@std@@@std@@IEAA?AU?$pair@V?$_Tree_iterator@V?$_Tree_val@U?$_Tree_simple_types@U?$pair@$$CBHUDataRequest@@@std@@@std@@@std@@@std@@_N@1@_NAEAU?$pair@$$CBHUDataRequest@@@1@PEAU?$_Tree_node@U?$pair@$$CBHUDataRequest@@@std@@PEAX@1@@Z 0000000180012254     addon.obj
 0002:00002264       xdata                      0000000180012264     node:node.exe
 0002:0000226c       $unwind$SimConnect_Open    000000018001226c     SimConnect:SimConnectClient.obj
 0002:0000227c       $chain$0$SimConnect_Open   000000018001227c     SimConnect:SimConnectClient.obj
 0002:00002290       $chain$2$SimConnect_Open   0000000180012290     SimConnect:SimConnectClient.obj
 0002:000022a4       $chain$3$SimConnect_Open   00000001800122a4     SimConnect:SimConnectClient.obj
 0002:000022b4       $unwind$SimConnect_AddToDataDefinition 00000001800122b4     SimConnect:SimConnectClient.obj
 0002:000022b4       $unwind$SimConnect_RequestDataOnSimObject 00000001800122b4     SimConnect:SimConnectClient.obj
 0002:000022b4       $unwind$SimConnect_TransmitClientEvent 00000001800122b4     SimConnect:SimConnectClient.obj
 0002:000022cc       $unwind$SimConnect_SetDataOnSimObject 00000001800122cc     SimConnect:SimConnectClient.obj
 0002:000022e8       $unwind$SimConnect_SubscribeToSystemEvent 00000001800122e8     SimConnect:SimConnectClient.obj
 0002:000022e8       $unwind$SimConnect_RequestSystemState 00000001800122e8     SimConnect:SimConnectClient.obj
 0002:000022e8       $unwind$SimConnect_MapClientEventToSimEvent 00000001800122e8     SimConnect:SimConnectClient.obj
 0002:000022fc       $unwind$?CommClient_Open@@YA?AW4CC_RESULT@@PEAPEAXK@Z 00000001800122fc     SimConnect:commClient.obj
 0002:00002324       $stateUnwindMap$?CommClient_Open@@YA?AW4CC_RESULT@@PEAPEAXK@Z 0000000180012324     SimConnect:commClient.obj
 0002:00002350       $ip2state$?CommClient_Open@@YA?AW4CC_RESULT@@PEAPEAXK@Z 0000000180012350     SimConnect:commClient.obj
 0002:00002398       $unwind$?dtor$0@?0??CommClient_Open@@YA?AW4CC_RESULT@@PEAPEAXK@Z@4HA 0000000180012398     SimConnect:commClient.obj
 0002:00002398       $unwind$?fin$0@?0??dllmain_crt_process_attach@@YAHQEAUHINSTANCE__@@QEAX@Z@4HA 0000000180012398     MSVCRT:dll_dllmain.obj
 0002:00002398       $unwind$?dtor$1@?0??CommClient_Open@@YA?AW4CC_RESULT@@PEAPEAXK@Z@4HA 0000000180012398     SimConnect:commClient.obj
 0002:00002398       $unwind$?fin$0@?0??dllmain_crt_process_detach@@YAH_N@Z@4HA 0000000180012398     MSVCRT:dll_dllmain.obj
 0002:00002398       $unwind$?dtor$2@?0??CommClient_Open@@YA?AW4CC_RESULT@@PEAPEAXK@Z@4HA 0000000180012398     SimConnect:commClient.obj
 0002:00002398       $unwind$?dtor$3@?0??CommClient_Open@@YA?AW4CC_RESULT@@PEAPEAXK@Z@4HA 0000000180012398     SimConnect:commClient.obj
 0002:000023a0       $unwind$?CommClient_Close@@YA?AW4CC_RESULT@@PEAX@Z 00000001800123a0     SimConnect:commClient.obj
 0002:000023bc       $stateUnwindMap$?CommClient_Close@@YA?AW4CC_RESULT@@PEAX@Z 00000001800123bc     SimConnect:commClient.obj
 0002:000023c8       $ip2state$?CommClient_Close@@YA?AW4CC_RESULT@@PEAX@Z 00000001800123c8     SimConnect:commClient.obj
 0002:000023e0       $unwind$?CommClient_SendAllocate@@YA?AW4CC_RESULT@@PEAXPEAPEAUSIMCONNECT_SEND@@K@Z 00000001800123e0     SimConnect:commClient.obj
 0002:00002400       $ip2state$?CommClient_SendAllocate@@YA?AW4CC_RESULT@@PEAXPEAPEAUSIMCONNECT_SEND@@K@Z 0000000180012400     SimConnect:commClient.obj
 0002:00002418       $unwind$?CommClient_SendAbort@@YA?AW4CC_RESULT@@PEAXPEAUSIMCONNECT_SEND@@K@Z 0000000180012418     SimConnect:commClient.obj
 0002:00002438       $ip2state$?CommClient_SendAbort@@YA?AW4CC_RESULT@@PEAXPEAUSIMCONNECT_SEND@@K@Z 0000000180012438     SimConnect:commClient.obj
 0002:00002450       $unwind$?CommClient_SendFlush@@YA?AW4CC_RESULT@@PEAX@Z 0000000180012450     SimConnect:commClient.obj
 0002:0000246c       $stateUnwindMap$?CommClient_SendFlush@@YA?AW4CC_RESULT@@PEAX@Z 000000018001246c     SimConnect:commClient.obj
 0002:00002480       $ip2state$?CommClient_SendFlush@@YA?AW4CC_RESULT@@PEAX@Z 0000000180012480     SimConnect:commClient.obj
 0002:000024a8       $unwind$?CommClient_ReceiveDispatch@@YA?AW4CC_RESULT@@PEAXP6AXPEAUSIMCONNECT_RECV@@K0@Z0@Z 00000001800124a8     SimConnect:commClient.obj
 0002:000024c0       $stateUnwindMap$?CommClient_ReceiveDispatch@@YA?AW4CC_RESULT@@PEAXP6AXPEAUSIMCONNECT_RECV@@K0@Z0@Z 00000001800124c0     SimConnect:commClient.obj
 0002:000024c8       $ip2state$?CommClient_ReceiveDispatch@@YA?AW4CC_RESULT@@PEAXP6AXPEAUSIMCONNECT_RECV@@K0@Z0@Z 00000001800124c8     SimConnect:commClient.obj
 0002:000024e0       $unwind$?CommClient_GetReceive@@YA?AW4CC_RESULT@@PEAXPEAPEAUSIMCONNECT_RECV@@PEAK@Z 00000001800124e0     SimConnect:commClient.obj
 0002:000024f0       $chain$2$?CommClient_GetReceive@@YA?AW4CC_RESULT@@PEAXPEAPEAUSIMCONNECT_RECV@@PEAK@Z 00000001800124f0     SimConnect:commClient.obj
 0002:0000250c       $chain$5$?CommClient_GetReceive@@YA?AW4CC_RESULT@@PEAXPEAPEAUSIMCONNECT_RECV@@PEAK@Z 000000018001250c     SimConnect:commClient.obj
 0002:0000250c       $chain$3$?CommClient_GetReceive@@YA?AW4CC_RESULT@@PEAXPEAPEAUSIMCONNECT_RECV@@PEAK@Z 000000018001250c     SimConnect:commClient.obj
 0002:0000250c       $chain$7$?CommClient_GetReceive@@YA?AW4CC_RESULT@@PEAXPEAPEAUSIMCONNECT_RECV@@PEAK@Z 000000018001250c     SimConnect:commClient.obj
 0002:00002520       $chain$8$?CommClient_GetReceive@@YA?AW4CC_RESULT@@PEAXPEAPEAUSIMCONNECT_RECV@@PEAK@Z 0000000180012520     SimConnect:commClient.obj
 0002:00002530       $unwind$?New@QueueItem@@SA?AV?$TSmartPtr@VQueueItem@@@@PEBXIHK@Z 0000000180012530     SimConnect:commClient.obj
 0002:00002544       $unwind$?AddElement@?$CQueue@V?$TSmartPtr@VQueueItem@@@@@@QEAAHAEBV?$TSmartPtr@VQueueItem@@@@@Z 0000000180012544     SimConnect:commClient.obj
 0002:00002558       $unwind$?DeleteAll@?$CQueue@V?$TSmartPtr@VQueueItem@@@@@@QEAAHXZ 0000000180012558     SimConnect:commClient.obj
 0002:00002564       $chain$0$?DeleteAll@?$CQueue@V?$TSmartPtr@VQueueItem@@@@@@QEAAHXZ 0000000180012564     SimConnect:commClient.obj
 0002:00002578       $chain$1$?DeleteAll@?$CQueue@V?$TSmartPtr@VQueueItem@@@@@@QEAAHXZ 0000000180012578     SimConnect:commClient.obj
 0002:00002588       $unwind$?ExtractElement@?$CQueue@V?$TSmartPtr@VQueueItem@@@@@@QEAAHAEAV?$TSmartPtr@VQueueItem@@@@@Z 0000000180012588     SimConnect:commClient.obj
 0002:00002594       $chain$1$?ExtractElement@?$CQueue@V?$TSmartPtr@VQueueItem@@@@@@QEAAHAEAV?$TSmartPtr@VQueueItem@@@@@Z 0000000180012594     SimConnect:commClient.obj
 0002:000025ac       $chain$2$?ExtractElement@?$CQueue@V?$TSmartPtr@VQueueItem@@@@@@QEAAHAEAV?$TSmartPtr@VQueueItem@@@@@Z 00000001800125ac     SimConnect:commClient.obj
 0002:000025bc       $unwind$?AddElement@?$CThreadSafeQueue@V?$TSmartPtr@VQueueItem@@@@@@QEAAHAEBV?$TSmartPtr@VQueueItem@@@@@Z 00000001800125bc     SimConnect:commClient.obj
 0002:000025d4       $stateUnwindMap$?CommClient_SendAbort@@YA?AW4CC_RESULT@@PEAXPEAUSIMCONNECT_SEND@@K@Z 00000001800125d4     SimConnect:commClient.obj
 0002:000025d4       $stateUnwindMap$?AddElement@?$CThreadSafeQueue@V?$TSmartPtr@VQueueItem@@@@@@QEAAHAEBV?$TSmartPtr@VQueueItem@@@@@Z 00000001800125d4     SimConnect:commClient.obj
 0002:000025d4       $stateUnwindMap$?CommClient_SendAllocate@@YA?AW4CC_RESULT@@PEAXPEAPEAUSIMCONNECT_SEND@@K@Z 00000001800125d4     SimConnect:commClient.obj
 0002:000025e0       $ip2state$?AddElement@?$CThreadSafeQueue@V?$TSmartPtr@VQueueItem@@@@@@QEAAHAEBV?$TSmartPtr@VQueueItem@@@@@Z 00000001800125e0     SimConnect:commClient.obj
 0002:000025f8       $unwind$?StringCbPrintfW@@YAJPEA_W_KPEB_WZZ 00000001800125f8     SimConnect:commClient.obj
 0002:00002604       $chain$0$?StringCbPrintfW@@YAJPEA_W_KPEB_WZZ 0000000180012604     SimConnect:commClient.obj
 0002:00002618       $chain$1$?StringCbPrintfW@@YAJPEA_W_KPEB_WZZ 0000000180012618     SimConnect:commClient.obj
 0002:0000262c       $chain$2$?StringCbPrintfW@@YAJPEA_W_KPEB_WZZ 000000018001262c     SimConnect:commClient.obj
 0002:0000263c       $chain$4$?StringCbPrintfW@@YAJPEA_W_KPEB_WZZ 000000018001263c     SimConnect:commClient.obj
 0002:00002650       $chain$5$?StringCbPrintfW@@YAJPEA_W_KPEB_WZZ 0000000180012650     SimConnect:commClient.obj
 0002:00002660       $unwind$?ProcessPacket@ClientClient@@UEAA?AW4PROCESSPACKET@CClient@@PEAVtagPacket@@@Z 0000000180012660     SimConnect:commClient.obj
 0002:00002678       $stateUnwindMap$?ProcessPacket@ClientClient@@UEAA?AW4PROCESSPACKET@CClient@@PEAVtagPacket@@@Z 0000000180012678     SimConnect:commClient.obj
 0002:00002688       $ip2state$?ProcessPacket@ClientClient@@UEAA?AW4PROCESSPACKET@CClient@@PEAVtagPacket@@@Z 0000000180012688     SimConnect:commClient.obj
 0002:000026b0       $unwind$?Reset@ClientClient@@UEAAXXZ 00000001800126b0     SimConnect:commClient.obj
 0002:000026b0       $unwind$SimConnect_CallDispatch 00000001800126b0     SimConnect:SimConnectClient.obj
 0002:000026b0       $unwind$SimConnect_GetNextDispatch 00000001800126b0     SimConnect:SimConnectClient.obj
 0002:000026b8       $unwind$?Connect@ClientClient@@QEAA_NHPEB_W0I_N@Z 00000001800126b8     SimConnect:commClient.obj
 0002:000026d4       $unwind$?_Reallocate@?$vector@UCLIENT_INPROC_ALLOC@@V?$allocator@UCLIENT_INPROC_ALLOC@@@std@@@std@@IEAAX_K@Z 00000001800126d4     SimConnect:commClient.obj
 0002:000026ec       $stateUnwindMap$?_Reallocate@?$vector@UCLIENT_INPROC_ALLOC@@V?$allocator@UCLIENT_INPROC_ALLOC@@@std@@@std@@IEAAX_K@Z 00000001800126ec     SimConnect:commClient.obj
 0002:000026fc       $tryMap$?_Reallocate@?$vector@UCLIENT_INPROC_ALLOC@@V?$allocator@UCLIENT_INPROC_ALLOC@@@std@@@std@@IEAAX_K@Z 00000001800126fc     SimConnect:commClient.obj
 0002:00002710       $handlerMap$0$?_Reallocate@?$vector@UCLIENT_INPROC_ALLOC@@V?$allocator@UCLIENT_INPROC_ALLOC@@@std@@@std@@IEAAX_K@Z 0000000180012710     SimConnect:commClient.obj
 0002:00002728       $ip2state$?_Reallocate@?$vector@UCLIENT_INPROC_ALLOC@@V?$allocator@UCLIENT_INPROC_ALLOC@@@std@@@std@@IEAAX_K@Z 0000000180012728     SimConnect:commClient.obj
 0002:00002750       $unwind$?catch$48@?0??_Reallocate@?$vector@UCLIENT_INPROC_ALLOC@@V?$allocator@UCLIENT_INPROC_ALLOC@@@std@@@std@@IEAAX_K@Z@4HA 0000000180012750     SimConnect:commClient.obj
 0002:00002760       $unwind$?_Reserve@?$vector@UCLIENT_INPROC_ALLOC@@V?$allocator@UCLIENT_INPROC_ALLOC@@@std@@@std@@IEAAX_K@Z 0000000180012760     SimConnect:commClient.obj
 0002:00002768       $unwind$?WinSockStartup@@YA_NXZ 0000000180012768     SimConnect:commClient.obj
 0002:00002778       $unwind$?GetRegistryPort@@YA_N_NPEA_W@Z 0000000180012778     SimConnect:commClient.obj
 0002:00002788       $unwind$?validateConfigIndex@@YA?AW4CC_RESULT@@K@Z 0000000180012788     SimConnect:commClient.obj
 0002:0000279c       $chain$0$?validateConfigIndex@@YA?AW4CC_RESULT@@K@Z 000000018001279c     SimConnect:commClient.obj
 0002:000027b0       $chain$1$?validateConfigIndex@@YA?AW4CC_RESULT@@K@Z 00000001800127b0     SimConnect:commClient.obj
 0002:000027b0       $chain$3$?validateConfigIndex@@YA?AW4CC_RESULT@@K@Z 00000001800127b0     SimConnect:commClient.obj
 0002:000027c0       $chain$2$?validateConfigIndex@@YA?AW4CC_RESULT@@K@Z 00000001800127c0     SimConnect:commClient.obj
 0002:000027d4       $unwind$?readConfigFile@@YAXPEA_WKAEAH00AEAIAEA_N@Z 00000001800127d4     SimConnect:commClient.obj
 0002:000027f4       $unwind$?validateConfigIndexFile@@YA?AW4CC_RESULT@@PEA_WK@Z 00000001800127f4     SimConnect:commClient.obj
 0002:0000280c       $unwind$?ClientPutInQueue@@YAXKKIPEAX@Z 000000018001280c     SimConnect:commClient.obj
 0002:00002824       $stateUnwindMap$?ClientPutInQueue@@YAXKKIPEAX@Z 0000000180012824     SimConnect:commClient.obj
 0002:00002838       $ip2state$?ClientPutInQueue@@YAXKKIPEAX@Z 0000000180012838     SimConnect:commClient.obj
 0002:00002860       $unwind$?IsProtocolAvailable@CClient@@SA_N_N@Z 0000000180012860     SimConnect:client.obj
 0002:0000287c       $chain$0$?DoneIO@CClient@@SAXKKPEAU_OVERLAPPED@@@Z 000000018001287c     SimConnect:client.obj
 0002:00002890       $chain$1$?DoneIO@CClient@@SAXKKPEAU_OVERLAPPED@@@Z 0000000180012890     SimConnect:client.obj
 0002:000028a0       $unwind$?Maintenance@CClient@@QEAA_NXZ 00000001800128a0     SimConnect:client.obj
 0002:000028ac       $unwind$?XNetWrite@CClient@@AEAA_N_N@Z 00000001800128ac     SimConnect:client.obj
 0002:000028b8       $chain$1$?XNetWrite@CClient@@AEAA_N_N@Z 00000001800128b8     SimConnect:client.obj
 0002:000028d0       $chain$2$?XNetWrite@CClient@@AEAA_N_N@Z 00000001800128d0     SimConnect:client.obj
 0002:000028e0       $xdatasym                  00000001800128e0     MSVCRT:_amdsecgs_.obj
 0002:000028e4       $unwind$__scrt_is_nonwritable_in_current_image 00000001800128e4     MSVCRT:utility.obj
 0002:00002904       $unwind$__scrt_is_nonwritable_in_current_image$filt$0 0000000180012904     MSVCRT:utility.obj
 0002:0000290c       $unwind$__scrt_initialize_onexit_tables 000000018001290c     MSVCRT:utility.obj
 0002:00002918       $unwind$?dllmain_crt_process_attach@@YAHQEAUHINSTANCE__@@QEAX@Z 0000000180012918     MSVCRT:dll_dllmain.obj
 0002:00002944       $unwind$?dllmain_crt_process_detach@@YAH_N@Z 0000000180012944     MSVCRT:dll_dllmain.obj
 0002:0000296c       $unwind$__scrt_dllmain_exception_filter 000000018001296c     MSVCRT:utility.obj
 0002:0000296c       $unwind$?Close@CClient@@UEAAXW4CLIENTERROR@@K@Z 000000018001296c     SimConnect:client.obj
 0002:0000296c       $unwind$?dllmain_raw@@YAHQEAUHINSTANCE__@@KQEAX@Z 000000018001296c     MSVCRT:dll_dllmain.obj
 0002:00002980       $unwind$?dllmain_dispatch@@YAHQEAUHINSTANCE__@@KQEAX@Z 0000000180012980     MSVCRT:dll_dllmain.obj
 0002:000029a8       $unwind$?filt$0@?0??dllmain_dispatch@@YAHQEAUHINSTANCE__@@KQEAX@Z@4HA 00000001800129a8     MSVCRT:dll_dllmain.obj
 0002:000029b0       $unwind$__GSHandlerCheckCommon 00000001800129b0     MSVCRT:_gshandler_.obj
 0002:000029b8       $unwind$__GSHandlerCheck_EH 00000001800129b8     MSVCRT:gshandlereh.obj
 0002:000029d0       $xdatasym                  00000001800129d0     MSVCRT:_chkstk_.obj
 0002:000029d8       $unwind$__report_gsfailure 00000001800129d8     MSVCRT:gs_report.obj
 0002:000029e0       $unwind$capture_previous_context 00000001800129e0     MSVCRT:gs_report.obj
 0002:000029ec       $unwind$?__scrt_throw_std_bad_alloc@@YAXXZ 00000001800129ec     MSVCRT:throw_bad_alloc.obj
 0002:000029ec       $unwind$?__scrt_throw_std_bad_array_new_length@@YAXXZ 00000001800129ec     MSVCRT:throw_bad_alloc.obj
 0002:000029f4       $unwind$__isa_available_init 00000001800129f4     MSVCRT:_cpu_disp_.obj
 0002:00002a04       $unwind$__scrt_fastfail    0000000180012a04     MSVCRT:utility_desktop.obj
 0002:00002a14       $unwind$__security_init_cookie 0000000180012a14     MSVCRT:gs_support.obj
 0002:00002a20       $xdatasym                  0000000180012a20     MSVCRT:_guard_dispatch_.obj
 0002:00002a24       $unwind$?DloadObtainSection@@YAPEAXPEAK0@Z 0000000180012a24     DelayImp:delayhlp.obj
 0002:00002a34       $unwind$?DloadMakePermanentImageCommit@@YAXPEAX_K@Z 0000000180012a34     DelayImp:delayhlp.obj
 0002:00002a40       $unwind$?DloadProtectSection@@YAXKPEAK@Z 0000000180012a40     DelayImp:delayhlp.obj
 0002:00002a50       $unwind$__delayLoadHelper2 0000000180012a50     DelayImp:delayhlp.obj
 0002:00003800       .edata                     0000000180013800     node-simconnect.exp
 0002:00003828       rgpv                       0000000180013828     node-simconnect.exp
 0002:0000382c       rgszName                   000000018001382c     node-simconnect.exp
 0002:00003830       rgwOrd                     0000000180013830     node-simconnect.exp
 0002:00003832       szName                     0000000180013832     node-simconnect.exp
 0002:00003847       $N00001                    0000000180013847     node-simconnect.exp
 0002:00003d34       .idata$6                   0000000180013d34     kernel32:KERNEL32.dll
 0002:00003d72       .idata$6                   0000000180013d72     SimConnect:WS2_32.dll
 0002:00003d7e       .idata$6                   0000000180013d7e     SimConnect:SHLWAPI.dll
 0002:00003dfc       .idata$6                   0000000180013dfc     msvcprt:MSVCP140.dll
 0002:00003eca       .idata$6                   0000000180013eca     vcruntime:VCRUNTIME140.dll
 0002:00004066       .idata$6                   0000000180014066     ucrt:api-ms-win-crt-stdio-l1-1-0.dll
 0002:00004086       .idata$6                   0000000180014086     ucrt:api-ms-win-crt-runtime-l1-1-0.dll
 0002:000040a8       .idata$6                   00000001800140a8     ucrt:api-ms-win-crt-string-l1-1-0.dll
 0002:000040ca       .idata$6                   00000001800140ca     ucrt:api-ms-win-crt-convert-l1-1-0.dll
 0002:000040ec       .idata$6                   00000001800140ec     ucrt:api-ms-win-crt-heap-l1-1-0.dll
 0002:00004452       .idata$6                   0000000180014452     user32:USER32.dll
 0002:00004490       .idata$6                   0000000180014490     advapi32:ADVAPI32.dll
 0002:000044b6       .idata$6                   00000001800144b6     shell32:SHELL32.dll
 0002:000044d2       .idata$6                   00000001800144d2     ole32:ole32.dll
 0003:00000040       _module                    0000000180015040     addon.obj
 0003:000002c8       ?s_ClientCS@@3VAutoCriticalSection@@A 00000001800152c8     SimConnect:commClient.obj
 0003:00000310       ?module_local_atexit_table@@3U_onexit_table_t@@A 0000000180015310     MSVCRT:utility.obj
 0003:00000328       ?module_local_at_quick_exit_table@@3U_onexit_table_t@@A 0000000180015328     MSVCRT:utility.obj
 0003:00000340       ?is_initialized_as_dll@@3_NA 0000000180015340     MSVCRT:utility.obj
 0003:00000344       ?__proc_attached@@3HA      0000000180015344     MSVCRT:dll_dllmain.obj
 0003:00000350       GS_ExceptionRecord         0000000180015350     MSVCRT:gs_report.obj
 0003:000003f0       GS_ContextRecord           00000001800153f0     MSVCRT:gs_report.obj
 0004:00000000       $pdata$??__EexceptionNames@@YAXXZ 0000000180016000     addon.obj
 0004:0000000c       $pdata$??__EsizeMap@@YAXXZ 000000018001600c     addon.obj
 0004:00000018       $pdata$??__EdataRequests@@YAXXZ 0000000180016018     addon.obj
 0004:00000024       $pdata$??__EsystemEventCallbacks@@YAXXZ 0000000180016024     addon.obj
 0004:00000030       $pdata$??__EsystemStateCallbacks@@YAXXZ 0000000180016030     addon.obj
 0004:0000003c       $pdata$??__Es_ClientCS@@YAXXZ 000000018001603c     SimConnect:commClient.obj
 0004:00000048       $pdata$printf              0000000180016048     addon.obj
 0004:00000054       $pdata$sprintf             0000000180016054     addon.obj
 0004:00000060       $pdata$?NODE_SET_METHOD@node@@YAXV?$Local@VObject@v8@@@v8@@PEBDP6AXAEBV?$FunctionCallbackInfo@VValue@v8@@@3@@Z@Z 0000000180016060     addon.obj
 0004:0000006c       $pdata$?Call@Callback@Nan@@QEBA?AV?$Local@VValue@v8@@@v8@@HQEAV34@@Z 000000018001606c     addon.obj
 0004:00000078       $pdata$??0AsyncWorker@Nan@@QEAA@PEAVCallback@1@@Z 0000000180016078     addon.obj
 0004:00000084       $pdata$??1AsyncWorker@Nan@@UEAA@XZ 0000000180016084     addon.obj
 0004:00000090       $pdata$?WorkComplete@AsyncWorker@Nan@@UEAAXXZ 0000000180016090     addon.obj
 0004:0000009c       $pdata$?HandleOKCallback@AsyncWorker@Nan@@MEAAXXZ 000000018001609c     addon.obj
 0004:000000a8       $pdata$?HandleErrorCallback@AsyncWorker@Nan@@MEAAXXZ 00000001800160a8     addon.obj
 0004:000000b4       $pdata$??_GAsyncWorker@Nan@@UEAAPEAXI@Z 00000001800160b4     addon.obj
 0004:000000c0       $pdata$?AsyncExecuteComplete@Nan@@YAXPEAUuv_work_s@@@Z 00000001800160c0     addon.obj
 0004:000000cc       $pdata$?Execute@DispatchWorker@@UEAAXXZ 00000001800160cc     addon.obj
 0004:000000d8       $pdata$??_GDispatchWorker@@UEAAPEAXI@Z 00000001800160d8     addon.obj
 0004:000000e4       $pdata$?messageReceiver@@YAXPEAUuv_async_s@@@Z 00000001800160e4     addon.obj
 0004:000000f0       $pdata$?handleReceived_Data@@YAXPEAVIsolate@v8@@PEAUSIMCONNECT_RECV@@K@Z 00000001800160f0     addon.obj
 0004:000000fc       $pdata$0$?handleReceived_Data@@YAXPEAVIsolate@v8@@PEAUSIMCONNECT_RECV@@K@Z 00000001800160fc     addon.obj
 0004:00000108       $pdata$?handle_Error@@YAXPEAVIsolate@v8@@J@Z 0000000180016108     addon.obj
 0004:00000114       $pdata$?handleReceived_Event@@YAXPEAVIsolate@v8@@PEAUSIMCONNECT_RECV@@K@Z 0000000180016114     addon.obj
 0004:00000120       $pdata$?handleReceived_Exception@@YAXPEAVIsolate@v8@@PEAUSIMCONNECT_RECV@@K@Z 0000000180016120     addon.obj
 0004:0000012c       $pdata$?handleReceived_Filename@@YAXPEAVIsolate@v8@@PEAUSIMCONNECT_RECV@@K@Z 000000018001612c     addon.obj
 0004:00000138       $pdata$?handleReceived_Open@@YAXPEAVIsolate@v8@@PEAUSIMCONNECT_RECV@@K@Z 0000000180016138     addon.obj
 0004:00000144       $pdata$?handleReceived_SystemState@@YAXPEAVIsolate@v8@@PEAUSIMCONNECT_RECV@@K@Z 0000000180016144     addon.obj
 0004:00000150       $pdata$?handleReceived_Quit@@YAXPEAVIsolate@v8@@@Z 0000000180016150     addon.obj
 0004:0000015c       $pdata$?Open@@YAXAEBV?$FunctionCallbackInfo@VValue@v8@@@v8@@@Z 000000018001615c     addon.obj
 0004:00000168       $pdata$?Close@@YAXAEBV?$FunctionCallbackInfo@VValue@v8@@@v8@@@Z 0000000180016168     addon.obj
 0004:00000174       $pdata$1$?Close@@YAXAEBV?$FunctionCallbackInfo@VValue@v8@@@v8@@@Z 0000000180016174     addon.obj
 0004:00000180       $pdata$3$?Close@@YAXAEBV?$FunctionCallbackInfo@VValue@v8@@@v8@@@Z 0000000180016180     addon.obj
 0004:0000018c       $pdata$5$?Close@@YAXAEBV?$FunctionCallbackInfo@VValue@v8@@@v8@@@Z 000000018001618c     addon.obj
 0004:00000198       $pdata$6$?Close@@YAXAEBV?$FunctionCallbackInfo@VValue@v8@@@v8@@@Z 0000000180016198     addon.obj
 0004:000001a4       $pdata$?RequestSystemState@@YAXAEBV?$FunctionCallbackInfo@VValue@v8@@@v8@@@Z 00000001800161a4     addon.obj
 0004:000001b0       $pdata$1$?RequestSystemState@@YAXAEBV?$FunctionCallbackInfo@VValue@v8@@@v8@@@Z 00000001800161b0     addon.obj
 0004:000001bc       $pdata$2$?RequestSystemState@@YAXAEBV?$FunctionCallbackInfo@VValue@v8@@@v8@@@Z 00000001800161bc     addon.obj
 0004:000001c8       $pdata$3$?RequestSystemState@@YAXAEBV?$FunctionCallbackInfo@VValue@v8@@@v8@@@Z 00000001800161c8     addon.obj
 0004:000001d4       $pdata$4$?RequestSystemState@@YAXAEBV?$FunctionCallbackInfo@VValue@v8@@@v8@@@Z 00000001800161d4     addon.obj
 0004:000001e0       $pdata$?TransmitClientEvent@@YAXAEBV?$FunctionCallbackInfo@VValue@v8@@@v8@@@Z 00000001800161e0     addon.obj
 0004:000001ec       $pdata$2$?TransmitClientEvent@@YAXAEBV?$FunctionCallbackInfo@VValue@v8@@@v8@@@Z 00000001800161ec     addon.obj
 0004:000001f8       $pdata$3$?TransmitClientEvent@@YAXAEBV?$FunctionCallbackInfo@VValue@v8@@@v8@@@Z 00000001800161f8     addon.obj
 0004:00000204       $pdata$?SubscribeToSystemEvent@@YAXAEBV?$FunctionCallbackInfo@VValue@v8@@@v8@@@Z 0000000180016204     addon.obj
 0004:00000210       $pdata$1$?SubscribeToSystemEvent@@YAXAEBV?$FunctionCallbackInfo@VValue@v8@@@v8@@@Z 0000000180016210     addon.obj
 0004:0000021c       $pdata$2$?SubscribeToSystemEvent@@YAXAEBV?$FunctionCallbackInfo@VValue@v8@@@v8@@@Z 000000018001621c     addon.obj
 0004:00000228       $pdata$3$?SubscribeToSystemEvent@@YAXAEBV?$FunctionCallbackInfo@VValue@v8@@@v8@@@Z 0000000180016228     addon.obj
 0004:00000234       $pdata$4$?SubscribeToSystemEvent@@YAXAEBV?$FunctionCallbackInfo@VValue@v8@@@v8@@@Z 0000000180016234     addon.obj
 0004:00000240       $pdata$?RequestDataOnSimObject@@YAXAEBV?$FunctionCallbackInfo@VValue@v8@@@v8@@@Z 0000000180016240     addon.obj
 0004:0000024c       $pdata$2$?RequestDataOnSimObject@@YAXAEBV?$FunctionCallbackInfo@VValue@v8@@@v8@@@Z 000000018001624c     addon.obj
 0004:00000258       $pdata$7$?RequestDataOnSimObject@@YAXAEBV?$FunctionCallbackInfo@VValue@v8@@@v8@@@Z 0000000180016258     addon.obj
 0004:00000264       $pdata$8$?RequestDataOnSimObject@@YAXAEBV?$FunctionCallbackInfo@VValue@v8@@@v8@@@Z 0000000180016264     addon.obj
 0004:00000270       $pdata$9$?RequestDataOnSimObject@@YAXAEBV?$FunctionCallbackInfo@VValue@v8@@@v8@@@Z 0000000180016270     addon.obj
 0004:0000027c       $pdata$??1DataRequest@@QEAA@XZ 000000018001627c     addon.obj
 0004:00000288       $pdata$?SetDataOnSimObject@@YAXAEBV?$FunctionCallbackInfo@VValue@v8@@@v8@@@Z 0000000180016288     addon.obj
 0004:00000294       $pdata$1$?SetDataOnSimObject@@YAXAEBV?$FunctionCallbackInfo@VValue@v8@@@v8@@@Z 0000000180016294     addon.obj
 0004:000002a0       $pdata$2$?SetDataOnSimObject@@YAXAEBV?$FunctionCallbackInfo@VValue@v8@@@v8@@@Z 00000001800162a0     addon.obj
 0004:000002ac       $pdata$?generateDataRequest@@YA?AUDataRequest@@PEAVIsolate@v8@@PEAXV?$Local@VArray@v8@@@3@PEAVCallback@Nan@@@Z 00000001800162ac     addon.obj
 0004:000002b8       $pdata$?SetAircraftInitialPosition@@YAXAEBV?$FunctionCallbackInfo@VValue@v8@@@v8@@@Z 00000001800162b8     addon.obj
 0004:000002c4       $pdata$0$?SetAircraftInitialPosition@@YAXAEBV?$FunctionCallbackInfo@VValue@v8@@@v8@@@Z 00000001800162c4     addon.obj
 0004:000002d0       $pdata$7$?SetAircraftInitialPosition@@YAXAEBV?$FunctionCallbackInfo@VValue@v8@@@v8@@@Z 00000001800162d0     addon.obj
 0004:000002dc       $pdata$8$?SetAircraftInitialPosition@@YAXAEBV?$FunctionCallbackInfo@VValue@v8@@@v8@@@Z 00000001800162dc     addon.obj
 0004:000002e8       $pdata$9$?SetAircraftInitialPosition@@YAXAEBV?$FunctionCallbackInfo@VValue@v8@@@v8@@@Z 00000001800162e8     addon.obj
 0004:000002f4       $pdata$10$?SetAircraftInitialPosition@@YAXAEBV?$FunctionCallbackInfo@VValue@v8@@@v8@@@Z 00000001800162f4     addon.obj
 0004:00000300       $pdata$11$?SetAircraftInitialPosition@@YAXAEBV?$FunctionCallbackInfo@VValue@v8@@@v8@@@Z 0000000180016300     addon.obj
 0004:0000030c       $pdata$12$?SetAircraftInitialPosition@@YAXAEBV?$FunctionCallbackInfo@VValue@v8@@@v8@@@Z 000000018001630c     addon.obj
 0004:00000318       $pdata$13$?SetAircraftInitialPosition@@YAXAEBV?$FunctionCallbackInfo@VValue@v8@@@v8@@@Z 0000000180016318     addon.obj
 0004:00000324       $pdata$?Initialize@@YAXV?$Local@VObject@v8@@@v8@@@Z 0000000180016324     addon.obj
 0004:00000330       $pdata$??4?$vector@W4SIMCONNECT_DATATYPE@@V?$allocator@W4SIMCONNECT_DATATYPE@@@std@@@std@@QEAAAEAV01@AEBV01@@Z 0000000180016330     addon.obj
 0004:0000033c       $pdata$0$??4?$vector@W4SIMCONNECT_DATATYPE@@V?$allocator@W4SIMCONNECT_DATATYPE@@@std@@@std@@QEAAAEAV01@AEBV01@@Z 000000018001633c     addon.obj
 0004:00000348       $pdata$1$??4?$vector@W4SIMCONNECT_DATATYPE@@V?$allocator@W4SIMCONNECT_DATATYPE@@@std@@@std@@QEAAAEAV01@AEBV01@@Z 0000000180016348     addon.obj
 0004:00000354       $pdata$2$??4?$vector@W4SIMCONNECT_DATATYPE@@V?$allocator@W4SIMCONNECT_DATATYPE@@@std@@@std@@QEAAAEAV01@AEBV01@@Z 0000000180016354     addon.obj
 0004:00000360       $pdata$3$??4?$vector@W4SIMCONNECT_DATATYPE@@V?$allocator@W4SIMCONNECT_DATATYPE@@@std@@@std@@QEAAAEAV01@AEBV01@@Z 0000000180016360     addon.obj
 0004:0000036c       $pdata$??0?$vector@W4SIMCONNECT_DATATYPE@@V?$allocator@W4SIMCONNECT_DATATYPE@@@std@@@std@@QEAA@AEBV01@@Z 000000018001636c     addon.obj
 0004:00000378       $pdata$0$??0?$vector@W4SIMCONNECT_DATATYPE@@V?$allocator@W4SIMCONNECT_DATATYPE@@@std@@@std@@QEAA@AEBV01@@Z 0000000180016378     addon.obj
 0004:00000384       $pdata$1$??0?$vector@W4SIMCONNECT_DATATYPE@@V?$allocator@W4SIMCONNECT_DATATYPE@@@std@@@std@@QEAA@AEBV01@@Z 0000000180016384     addon.obj
 0004:00000390       $pdata$??4?$vector@V?$basic_string@DU?$char_traits@D@std@@V?$allocator@D@2@@std@@V?$allocator@V?$basic_string@DU?$char_traits@D@std@@V?$allocator@D@2@@std@@@2@@std@@QEAAAEAV01@AEBV01@@Z 0000000180016390     addon.obj
 0004:0000039c       $pdata$0$??4?$vector@V?$basic_string@DU?$char_traits@D@std@@V?$allocator@D@2@@std@@V?$allocator@V?$basic_string@DU?$char_traits@D@std@@V?$allocator@D@2@@std@@@2@@std@@QEAAAEAV01@AEBV01@@Z 000000018001639c     addon.obj
 0004:000003a8       $pdata$1$??4?$vector@V?$basic_string@DU?$char_traits@D@std@@V?$allocator@D@2@@std@@V?$allocator@V?$basic_string@DU?$char_traits@D@std@@V?$allocator@D@2@@std@@@2@@std@@QEAAAEAV01@AEBV01@@Z 00000001800163a8     addon.obj
 0004:000003b4       $pdata$?deallocate@?$_Wrap_alloc@V?$allocator@W4SIMCONNECT_DATATYPE@@@std@@@std@@QEAAXPEAW4SIMCONNECT_DATATYPE@@_K@Z 00000001800163b4     addon.obj
 0004:000003c0       $pdata$?_Buy@?$vector@W4SIMCONNECT_DATATYPE@@V?$allocator@W4SIMCONNECT_DATATYPE@@@std@@@std@@IEAA_N_K@Z 00000001800163c0     addon.obj
 0004:000003cc       $pdata$?deallocate@?$_Wrap_alloc@V?$allocator@V?$basic_string@DU?$char_traits@D@std@@V?$allocator@D@2@@std@@@std@@@std@@QEAAXPEAV?$basic_string@DU?$char_traits@D@std@@V?$allocator@D@2@@2@_K@Z 00000001800163cc     addon.obj
 0004:000003d8       $pdata$?_Buy@?$vector@V?$basic_string@DU?$char_traits@D@std@@V?$allocator@D@2@@std@@V?$allocator@V?$basic_string@DU?$char_traits@D@std@@V?$allocator@D@2@@std@@@2@@std@@IEAA_N_K@Z 00000001800163d8     addon.obj
 0004:000003e4       $pdata$?assign@?$basic_string@DU?$char_traits@D@std@@V?$allocator@D@2@@std@@QEAAAEAV12@PEBD_K@Z 00000001800163e4     addon.obj
 0004:000003f0       $pdata$?assign@?$basic_string@DU?$char_traits@D@std@@V?$allocator@D@2@@std@@QEAAAEAV12@AEBV12@_K1@Z 00000001800163f0     addon.obj
 0004:000003fc       $pdata$?_Assign_rv@?$basic_string@DU?$char_traits@D@std@@V?$allocator@D@2@@std@@QEAAX$$QEAV12@@Z 00000001800163fc     addon.obj
 0004:00000408       $pdata$?erase@?$_Tree@V?$_Tmap_traits@HPEAVCallback@Nan@@U?$less@H@std@@V?$allocator@U?$pair@$$CBHPEAVCallback@Nan@@@std@@@4@$0A@@std@@@std@@QEAA?AV?$_Tree_iterator@V?$_Tree_val@U?$_Tree_simple_types@U?$pair@$$CBHPEAVCallback@Nan@@@std@@@std@@@std@@@2@V?$_Tree_const_iterator@V?$_Tree_val@U?$_Tree_simple_types@U?$pair@$$CBHPEAVCallback@Nan@@@std@@@std@@@std@@@2@0@Z 0000000180016408     addon.obj
 0004:00000414       $pdata$0$?erase@?$_Tree@V?$_Tmap_traits@HPEAVCallback@Nan@@U?$less@H@std@@V?$allocator@U?$pair@$$CBHPEAVCallback@Nan@@@std@@@4@$0A@@std@@@std@@QEAA?AV?$_Tree_iterator@V?$_Tree_val@U?$_Tree_simple_types@U?$pair@$$CBHPEAVCallback@Nan@@@std@@@std@@@std@@@2@V?$_Tree_const_iterator@V?$_Tree_val@U?$_Tree_simple_types@U?$pair@$$CBHPEAVCallback@Nan@@@std@@@std@@@std@@@2@0@Z 0000000180016414     addon.obj
 0004:00000420       $pdata$1$?erase@?$_Tree@V?$_Tmap_traits@HPEAVCallback@Nan@@U?$less@H@std@@V?$allocator@U?$pair@$$CBHPEAVCallback@Nan@@@std@@@4@$0A@@std@@@std@@QEAA?AV?$_Tree_iterator@V?$_Tree_val@U?$_Tree_simple_types@U?$pair@$$CBHPEAVCallback@Nan@@@std@@@std@@@std@@@2@V?$_Tree_const_iterator@V?$_Tree_val@U?$_Tree_simple_types@U?$pair@$$CBHPEAVCallback@Nan@@@std@@@std@@@std@@@2@0@Z 0000000180016420     addon.obj
 0004:0000042c       $pdata$?erase@?$_Tree@V?$_Tmap_traits@HUDataRequest@@U?$less@H@std@@V?$allocator@U?$pair@$$CBHUDataRequest@@@std@@@3@$0A@@std@@@std@@QEAA?AV?$_Tree_iterator@V?$_Tree_val@U?$_Tree_simple_types@U?$pair@$$CBHUDataRequest@@@std@@@std@@@std@@@2@V?$_Tree_const_iterator@V?$_Tree_val@U?$_Tree_simple_types@U?$pair@$$CBHUDataRequest@@@std@@@std@@@std@@@2@0@Z 000000018001642c     addon.obj
 0004:00000438       $pdata$?erase@?$_Tree@V?$_Tmap_traits@W4SIMCONNECT_DATATYPE@@HU?$less@W4SIMCONNECT_DATATYPE@@@std@@V?$allocator@U?$pair@$$CBW4SIMCONNECT_DATATYPE@@H@std@@@3@$0A@@std@@@std@@QEAA?AV?$_Tree_iterator@V?$_Tree_val@U?$_Tree_simple_types@U?$pair@$$CBW4SIMCONNECT_DATATYPE@@H@std@@@std@@@std@@@2@V?$_Tree_const_iterator@V?$_Tree_val@U?$_Tree_simple_types@U?$pair@$$CBW4SIMCONNECT_DATATYPE@@H@std@@@std@@@std@@@2@0@Z 0000000180016438     addon.obj
 0004:00000444       $pdata$?erase@?$_Tree@V?$_Tmap_traits@W4SIMCONNECT_EXCEPTION@@PEBDU?$less@W4SIMCONNECT_EXCEPTION@@@std@@V?$allocator@U?$pair@$$CBW4SIMCONNECT_EXCEPTION@@PEBD@std@@@3@$0A@@std@@@std@@QEAA?AV?$_Tree_iterator@V?$_Tree_val@U?$_Tree_simple_types@U?$pair@$$CBW4SIMCONNECT_EXCEPTION@@PEBD@std@@@std@@@std@@@2@V?$_Tree_const_iterator@V?$_Tree_val@U?$_Tree_simple_types@U?$pair@$$CBW4SIMCONNECT_EXCEPTION@@PEBD@std@@@std@@@std@@@2@0@Z 0000000180016444     addon.obj
 0004:00000450       $pdata$?allocate@?$_Wrap_alloc@V?$allocator@W4SIMCONNECT_DATATYPE@@@std@@@std@@QEAAPEAW4SIMCONNECT_DATATYPE@@_K@Z 0000000180016450     addon.obj
 0004:0000045c       $pdata$?_Reallocate@?$vector@W4SIMCONNECT_DATATYPE@@V?$allocator@W4SIMCONNECT_DATATYPE@@@std@@@std@@IEAAX_K@Z 000000018001645c     addon.obj
 0004:00000468       $pdata$?allocate@?$_Wrap_alloc@V?$allocator@V?$basic_string@DU?$char_traits@D@std@@V?$allocator@D@2@@std@@@std@@@std@@QEAAPEAV?$basic_string@DU?$char_traits@D@std@@V?$allocator@D@2@@2@_K@Z 0000000180016468     addon.obj
 0004:00000474       $pdata$?_Reallocate@?$vector@V?$basic_string@DU?$char_traits@D@std@@V?$allocator@D@2@@std@@V?$allocator@V?$basic_string@DU?$char_traits@D@std@@V?$allocator@D@2@@std@@@2@@std@@IEAAX_K@Z 0000000180016474     addon.obj
 0004:00000480       $pdata$2$?_Reallocate@?$vector@V?$basic_string@DU?$char_traits@D@std@@V?$allocator@D@2@@std@@V?$allocator@V?$basic_string@DU?$char_traits@D@std@@V?$allocator@D@2@@std@@@2@@std@@IEAAX_K@Z 0000000180016480     addon.obj
 0004:0000048c       $pdata$3$?_Reallocate@?$vector@V?$basic_string@DU?$char_traits@D@std@@V?$allocator@D@2@@std@@V?$allocator@V?$basic_string@DU?$char_traits@D@std@@V?$allocator@D@2@@std@@@2@@std@@IEAAX_K@Z 000000018001648c     addon.obj
 0004:00000498       $pdata$?erase@?$basic_string@DU?$char_traits@D@std@@V?$allocator@D@2@@std@@QEAAAEAV12@_K0@Z 0000000180016498     addon.obj
 0004:000004a4       $pdata$?erase@?$_Tree@V?$_Tmap_traits@HPEAVCallback@Nan@@U?$less@H@std@@V?$allocator@U?$pair@$$CBHPEAVCallback@Nan@@@std@@@4@$0A@@std@@@std@@QEAA?AV?$_Tree_iterator@V?$_Tree_val@U?$_Tree_simple_types@U?$pair@$$CBHPEAVCallback@Nan@@@std@@@std@@@std@@@2@V?$_Tree_const_iterator@V?$_Tree_val@U?$_Tree_simple_types@U?$pair@$$CBHPEAVCallback@Nan@@@std@@@std@@@std@@@2@@Z 00000001800164a4     addon.obj
 0004:000004b0       $pdata$1$?erase@?$_Tree@V?$_Tmap_traits@HPEAVCallback@Nan@@U?$less@H@std@@V?$allocator@U?$pair@$$CBHPEAVCallback@Nan@@@std@@@4@$0A@@std@@@std@@QEAA?AV?$_Tree_iterator@V?$_Tree_val@U?$_Tree_simple_types@U?$pair@$$CBHPEAVCallback@Nan@@@std@@@std@@@std@@@2@V?$_Tree_const_iterator@V?$_Tree_val@U?$_Tree_simple_types@U?$pair@$$CBHPEAVCallback@Nan@@@std@@@std@@@std@@@2@@Z 00000001800164b0     addon.obj
 0004:000004bc       $pdata$2$?erase@?$_Tree@V?$_Tmap_traits@HPEAVCallback@Nan@@U?$less@H@std@@V?$allocator@U?$pair@$$CBHPEAVCallback@Nan@@@std@@@4@$0A@@std@@@std@@QEAA?AV?$_Tree_iterator@V?$_Tree_val@U?$_Tree_simple_types@U?$pair@$$CBHPEAVCallback@Nan@@@std@@@std@@@std@@@2@V?$_Tree_const_iterator@V?$_Tree_val@U?$_Tree_simple_types@U?$pair@$$CBHPEAVCallback@Nan@@@std@@@std@@@std@@@2@@Z 00000001800164bc     addon.obj
 0004:000004c8       $pdata$?erase@?$_Tree@V?$_Tmap_traits@HUDataRequest@@U?$less@H@std@@V?$allocator@U?$pair@$$CBHUDataRequest@@@std@@@3@$0A@@std@@@std@@QEAA?AV?$_Tree_iterator@V?$_Tree_val@U?$_Tree_simple_types@U?$pair@$$CBHUDataRequest@@@std@@@std@@@std@@@2@V?$_Tree_const_iterator@V?$_Tree_val@U?$_Tree_simple_types@U?$pair@$$CBHUDataRequest@@@std@@@std@@@std@@@2@@Z 00000001800164c8     addon.obj
 0004:000004d4       $pdata$?clear@?$_Tree@V?$_Tmap_traits@W4SIMCONNECT_DATATYPE@@HU?$less@W4SIMCONNECT_DATATYPE@@@std@@V?$allocator@U?$pair@$$CBW4SIMCONNECT_DATATYPE@@H@std@@@3@$0A@@std@@@std@@QEAAXXZ 00000001800164d4     addon.obj
 0004:000004e0       $pdata$?erase@?$_Tree@V?$_Tmap_traits@W4SIMCONNECT_DATATYPE@@HU?$less@W4SIMCONNECT_DATATYPE@@@std@@V?$allocator@U?$pair@$$CBW4SIMCONNECT_DATATYPE@@H@std@@@3@$0A@@std@@@std@@QEAA?AV?$_Tree_iterator@V?$_Tree_val@U?$_Tree_simple_types@U?$pair@$$CBW4SIMCONNECT_DATATYPE@@H@std@@@std@@@std@@@2@V?$_Tree_const_iterator@V?$_Tree_val@U?$_Tree_simple_types@U?$pair@$$CBW4SIMCONNECT_DATATYPE@@H@std@@@std@@@std@@@2@@Z 00000001800164e0     addon.obj
 0004:000004ec       $pdata$1$?erase@?$_Tree@V?$_Tmap_traits@W4SIMCONNECT_DATATYPE@@HU?$less@W4SIMCONNECT_DATATYPE@@@std@@V?$allocator@U?$pair@$$CBW4SIMCONNECT_DATATYPE@@H@std@@@3@$0A@@std@@@std@@QEAA?AV?$_Tree_iterator@V?$_Tree_val@U?$_Tree_simple_types@U?$pair@$$CBW4SIMCONNECT_DATATYPE@@H@std@@@std@@@std@@@2@V?$_Tree_const_iterator@V?$_Tree_val@U?$_Tree_simple_types@U?$pair@$$CBW4SIMCONNECT_DATATYPE@@H@std@@@std@@@std@@@2@@Z 00000001800164ec     addon.obj
 0004:000004f8       $pdata$2$?erase@?$_Tree@V?$_Tmap_traits@W4SIMCONNECT_DATATYPE@@HU?$less@W4SIMCONNECT_DATATYPE@@@std@@V?$allocator@U?$pair@$$CBW4SIMCONNECT_DATATYPE@@H@std@@@3@$0A@@std@@@std@@QEAA?AV?$_Tree_iterator@V?$_Tree_val@U?$_Tree_simple_types@U?$pair@$$CBW4SIMCONNECT_DATATYPE@@H@std@@@std@@@std@@@2@V?$_Tree_const_iterator@V?$_Tree_val@U?$_Tree_simple_types@U?$pair@$$CBW4SIMCONNECT_DATATYPE@@H@std@@@std@@@std@@@2@@Z 00000001800164f8     addon.obj
 0004:00000504       $pdata$?clear@?$_Tree@V?$_Tmap_traits@W4SIMCONNECT_EXCEPTION@@PEBDU?$less@W4SIMCONNECT_EXCEPTION@@@std@@V?$allocator@U?$pair@$$CBW4SIMCONNECT_EXCEPTION@@PEBD@std@@@3@$0A@@std@@@std@@QEAAXXZ 0000000180016504     addon.obj
 0004:00000510       $pdata$?erase@?$_Tree@V?$_Tmap_traits@W4SIMCONNECT_EXCEPTION@@PEBDU?$less@W4SIMCONNECT_EXCEPTION@@@std@@V?$allocator@U?$pair@$$CBW4SIMCONNECT_EXCEPTION@@PEBD@std@@@3@$0A@@std@@@std@@QEAA?AV?$_Tree_iterator@V?$_Tree_val@U?$_Tree_simple_types@U?$pair@$$CBW4SIMCONNECT_EXCEPTION@@PEBD@std@@@std@@@std@@@2@V?$_Tree_const_iterator@V?$_Tree_val@U?$_Tree_simple_types@U?$pair@$$CBW4SIMCONNECT_EXCEPTION@@PEBD@std@@@std@@@std@@@2@@Z 0000000180016510     addon.obj
 0004:0000051c       $pdata$1$?erase@?$_Tree@V?$_Tmap_traits@W4SIMCONNECT_EXCEPTION@@PEBDU?$less@W4SIMCONNECT_EXCEPTION@@@std@@V?$allocator@U?$pair@$$CBW4SIMCONNECT_EXCEPTION@@PEBD@std@@@3@$0A@@std@@@std@@QEAA?AV?$_Tree_iterator@V?$_Tree_val@U?$_Tree_simple_types@U?$pair@$$CBW4SIMCONNECT_EXCEPTION@@PEBD@std@@@std@@@std@@@2@V?$_Tree_const_iterator@V?$_Tree_val@U?$_Tree_simple_types@U?$pair@$$CBW4SIMCONNECT_EXCEPTION@@PEBD@std@@@std@@@std@@@2@@Z 000000018001651c     addon.obj
 0004:00000528       $pdata$2$?erase@?$_Tree@V?$_Tmap_traits@W4SIMCONNECT_EXCEPTION@@PEBDU?$less@W4SIMCONNECT_EXCEPTION@@@std@@V?$allocator@U?$pair@$$CBW4SIMCONNECT_EXCEPTION@@PEBD@std@@@3@$0A@@std@@@std@@QEAA?AV?$_Tree_iterator@V?$_Tree_val@U?$_Tree_simple_types@U?$pair@$$CBW4SIMCONNECT_EXCEPTION@@PEBD@std@@@std@@@std@@@2@V?$_Tree_const_iterator@V?$_Tree_val@U?$_Tree_simple_types@U?$pair@$$CBW4SIMCONNECT_EXCEPTION@@PEBD@std@@@std@@@std@@@2@@Z 0000000180016528     addon.obj
 0004:00000534       $pdata$?_Copy@?$basic_string@DU?$char_traits@D@std@@V?$allocator@D@2@@std@@QEAAX_K0@Z 0000000180016534     addon.obj
 0004:00000540       $pdata$?_Erase@?$_Tree@V?$_Tmap_traits@HPEAVCallback@Nan@@U?$less@H@std@@V?$allocator@U?$pair@$$CBHPEAVCallback@Nan@@@std@@@4@$0A@@std@@@std@@IEAAXPEAU?$_Tree_node@U?$pair@$$CBHPEAVCallback@Nan@@@std@@PEAX@2@@Z 0000000180016540     addon.obj
 0004:00000540       $pdata$?_Erase@?$_Tree@V?$_Tmap_traits@W4SIMCONNECT_EXCEPTION@@PEBDU?$less@W4SIMCONNECT_EXCEPTION@@@std@@V?$allocator@U?$pair@$$CBW4SIMCONNECT_EXCEPTION@@PEBD@std@@@3@$0A@@std@@@std@@IEAAXPEAU?$_Tree_node@U?$pair@$$CBW4SIMCONNECT_EXCEPTION@@PEBD@std@@PEAX@2@@Z 0000000180016540     addon.obj
 0004:00000540       $pdata$?_Erase@?$_Tree@V?$_Tmap_traits@W4SIMCONNECT_DATATYPE@@HU?$less@W4SIMCONNECT_DATATYPE@@@std@@V?$allocator@U?$pair@$$CBW4SIMCONNECT_DATATYPE@@H@std@@@3@$0A@@std@@@std@@IEAAXPEAU?$_Tree_node@U?$pair@$$CBW4SIMCONNECT_DATATYPE@@H@std@@PEAX@2@@Z 0000000180016540     addon.obj
 0004:0000054c       $pdata$?_Erase@?$_Tree@V?$_Tmap_traits@HUDataRequest@@U?$less@H@std@@V?$allocator@U?$pair@$$CBHUDataRequest@@@std@@@3@$0A@@std@@@std@@IEAAXPEAU?$_Tree_node@U?$pair@$$CBHUDataRequest@@@std@@PEAX@2@@Z 000000018001654c     addon.obj
 0004:00000558       $pdata$0$?_Erase@?$_Tree@V?$_Tmap_traits@HUDataRequest@@U?$less@H@std@@V?$allocator@U?$pair@$$CBHUDataRequest@@@std@@@3@$0A@@std@@@std@@IEAAXPEAU?$_Tree_node@U?$pair@$$CBHUDataRequest@@@std@@PEAX@2@@Z 0000000180016558     addon.obj
 0004:00000564       $pdata$1$?_Erase@?$_Tree@V?$_Tmap_traits@HUDataRequest@@U?$less@H@std@@V?$allocator@U?$pair@$$CBHUDataRequest@@@std@@@3@$0A@@std@@@std@@IEAAXPEAU?$_Tree_node@U?$pair@$$CBHUDataRequest@@@std@@PEAX@2@@Z 0000000180016564     addon.obj
 0004:00000570       $pdata$2$?_Erase@?$_Tree@V?$_Tmap_traits@HUDataRequest@@U?$less@H@std@@V?$allocator@U?$pair@$$CBHUDataRequest@@@std@@@3@$0A@@std@@@std@@IEAAXPEAU?$_Tree_node@U?$pair@$$CBHUDataRequest@@@std@@PEAX@2@@Z 0000000180016570     addon.obj
 0004:0000057c       $pdata$??$_Copy_unchecked@PEAV?$basic_string@DU?$char_traits@D@std@@V?$allocator@D@2@@std@@PEAV12@@std@@YAPEAV?$basic_string@DU?$char_traits@D@std@@V?$allocator@D@2@@0@PEAV10@00@Z 000000018001657c     addon.obj
 0004:00000588       $pdata$??$insert@PEBU?$pair@$$CBW4SIMCONNECT_DATATYPE@@H@std@@@?$_Tree@V?$_Tmap_traits@W4SIMCONNECT_DATATYPE@@HU?$less@W4SIMCONNECT_DATATYPE@@@std@@V?$allocator@U?$pair@$$CBW4SIMCONNECT_DATATYPE@@H@std@@@3@$0A@@std@@@std@@QEAAXPEBU?$pair@$$CBW4SIMCONNECT_DATATYPE@@H@1@0@Z 0000000180016588     addon.obj
 0004:00000594       $pdata$0$??$insert@PEBU?$pair@$$CBW4SIMCONNECT_DATATYPE@@H@std@@@?$_Tree@V?$_Tmap_traits@W4SIMCONNECT_DATATYPE@@HU?$less@W4SIMCONNECT_DATATYPE@@@std@@V?$allocator@U?$pair@$$CBW4SIMCONNECT_DATATYPE@@H@std@@@3@$0A@@std@@@std@@QEAAXPEBU?$pair@$$CBW4SIMCONNECT_DATATYPE@@H@1@0@Z 0000000180016594     addon.obj
 0004:000005a0       $pdata$1$??$insert@PEBU?$pair@$$CBW4SIMCONNECT_DATATYPE@@H@std@@@?$_Tree@V?$_Tmap_traits@W4SIMCONNECT_DATATYPE@@HU?$less@W4SIMCONNECT_DATATYPE@@@std@@V?$allocator@U?$pair@$$CBW4SIMCONNECT_DATATYPE@@H@std@@@3@$0A@@std@@@std@@QEAAXPEBU?$pair@$$CBW4SIMCONNECT_DATATYPE@@H@1@0@Z 00000001800165a0     addon.obj
 0004:000005ac       $pdata$??$insert@PEBU?$pair@$$CBW4SIMCONNECT_EXCEPTION@@PEBD@std@@@?$_Tree@V?$_Tmap_traits@W4SIMCONNECT_EXCEPTION@@PEBDU?$less@W4SIMCONNECT_EXCEPTION@@@std@@V?$allocator@U?$pair@$$CBW4SIMCONNECT_EXCEPTION@@PEBD@std@@@3@$0A@@std@@@std@@QEAAXPEBU?$pair@$$CBW4SIMCONNECT_EXCEPTION@@PEBD@1@0@Z 00000001800165ac     addon.obj
 0004:000005b8       $pdata$0$??$insert@PEBU?$pair@$$CBW4SIMCONNECT_EXCEPTION@@PEBD@std@@@?$_Tree@V?$_Tmap_traits@W4SIMCONNECT_EXCEPTION@@PEBDU?$less@W4SIMCONNECT_EXCEPTION@@@std@@V?$allocator@U?$pair@$$CBW4SIMCONNECT_EXCEPTION@@PEBD@std@@@3@$0A@@std@@@std@@QEAAXPEBU?$pair@$$CBW4SIMCONNECT_EXCEPTION@@PEBD@1@0@Z 00000001800165b8     addon.obj
 0004:000005c4       $pdata$1$??$insert@PEBU?$pair@$$CBW4SIMCONNECT_EXCEPTION@@PEBD@std@@@?$_Tree@V?$_Tmap_traits@W4SIMCONNECT_EXCEPTION@@PEBDU?$less@W4SIMCONNECT_EXCEPTION@@@std@@V?$allocator@U?$pair@$$CBW4SIMCONNECT_EXCEPTION@@PEBD@std@@@3@$0A@@std@@@std@@QEAAXPEBU?$pair@$$CBW4SIMCONNECT_EXCEPTION@@PEBD@1@0@Z 00000001800165c4     addon.obj
 0004:000005d0       $pdata$??$_Try_emplace@AEBH$$V@?$map@HUDataRequest@@U?$less@H@std@@V?$allocator@U?$pair@$$CBHUDataRequest@@@std@@@3@@std@@QEAA?AU?$pair@V?$_Tree_iterator@V?$_Tree_val@U?$_Tree_simple_types@U?$pair@$$CBHUDataRequest@@@std@@@std@@@std@@@std@@_N@1@AEBH@Z 00000001800165d0     addon.obj
 0004:000005dc       $pdata$??$_Try_emplace@AEBW4SIMCONNECT_DATATYPE@@$$V@?$map@W4SIMCONNECT_DATATYPE@@HU?$less@W4SIMCONNECT_DATATYPE@@@std@@V?$allocator@U?$pair@$$CBW4SIMCONNECT_DATATYPE@@H@std@@@3@@std@@QEAA?AU?$pair@V?$_Tree_iterator@V?$_Tree_val@U?$_Tree_simple_types@U?$pair@$$CBW4SIMCONNECT_DATATYPE@@H@std@@@std@@@std@@@std@@_N@1@AEBW4SIMCONNECT_DATATYPE@@@Z 00000001800165dc     addon.obj
 0004:000005e8       $pdata$??$_Try_emplace@W4SIMCONNECT_EXCEPTION@@$$V@?$map@W4SIMCONNECT_EXCEPTION@@PEBDU?$less@W4SIMCONNECT_EXCEPTION@@@std@@V?$allocator@U?$pair@$$CBW4SIMCONNECT_EXCEPTION@@PEBD@std@@@3@@std@@QEAA?AU?$pair@V?$_Tree_iterator@V?$_Tree_val@U?$_Tree_simple_types@U?$pair@$$CBW4SIMCONNECT_EXCEPTION@@PEBD@std@@@std@@@std@@@std@@_N@1@$$QEAW4SIMCONNECT_EXCEPTION@@@Z 00000001800165e8     addon.obj
 0004:000005f4       $pdata$??$_Destroy_range1@V?$allocator@V?$basic_string@DU?$char_traits@D@std@@V?$allocator@D@2@@std@@@std@@PEAV?$basic_string@DU?$char_traits@D@std@@V?$allocator@D@2@@2@@std@@YAXPEAV?$basic_string@DU?$char_traits@D@std@@V?$allocator@D@2@@0@0AEAU?$_Wrap_alloc@V?$allocator@V?$basic_string@DU?$char_traits@D@std@@V?$allocator@D@2@@std@@@std@@@0@U?$integral_constant@_N$0A@@0@@Z 00000001800165f4     addon.obj
 0004:00000600       $pdata$1$??$_Destroy_range1@V?$allocator@V?$basic_string@DU?$char_traits@D@std@@V?$allocator@D@2@@std@@@std@@PEAV?$basic_string@DU?$char_traits@D@std@@V?$allocator@D@2@@2@@std@@YAXPEAV?$basic_string@DU?$char_traits@D@std@@V?$allocator@D@2@@0@0AEAU?$_Wrap_alloc@V?$allocator@V?$basic_string@DU?$char_traits@D@std@@V?$allocator@D@2@@std@@@std@@@0@U?$integral_constant@_N$0A@@0@@Z 0000000180016600     addon.obj
 0004:0000060c       $pdata$2$??$_Destroy_range1@V?$allocator@V?$basic_string@DU?$char_traits@D@std@@V?$allocator@D@2@@std@@@std@@PEAV?$basic_string@DU?$char_traits@D@std@@V?$allocator@D@2@@2@@std@@YAXPEAV?$basic_string@DU?$char_traits@D@std@@V?$allocator@D@2@@0@0AEAU?$_Wrap_alloc@V?$allocator@V?$basic_string@DU?$char_traits@D@std@@V?$allocator@D@2@@std@@@std@@@0@U?$integral_constant@_N$0A@@0@@Z 000000018001660c     addon.obj
 0004:00000618       $pdata$3$??$_Destroy_range1@V?$allocator@V?$basic_string@DU?$char_traits@D@std@@V?$allocator@D@2@@std@@@std@@PEAV?$basic_string@DU?$char_traits@D@std@@V?$allocator@D@2@@2@@std@@YAXPEAV?$basic_string@DU?$char_traits@D@std@@V?$allocator@D@2@@0@0AEAU?$_Wrap_alloc@V?$allocator@V?$basic_string@DU?$char_traits@D@std@@V?$allocator@D@2@@std@@@std@@@0@U?$integral_constant@_N$0A@@0@@Z 0000000180016618     addon.obj
 0004:00000624       $pdata$??$_Uninitialized_copy_al_unchecked@PEAV?$basic_string@DU?$char_traits@D@std@@V?$allocator@D@2@@std@@PEAV12@V?$allocator@V?$basic_string@DU?$char_traits@D@std@@V?$allocator@D@2@@std@@@2@@std@@YAPEAV?$basic_string@DU?$char_traits@D@std@@V?$allocator@D@2@@0@PEAV10@00AEAU?$_Wrap_alloc@V?$allocator@V?$basic_string@DU?$char_traits@D@std@@V?$allocator@D@2@@std@@@std@@@0@@Z 0000000180016624     addon.obj
 0004:00000624       $pdata$??$_Uninitialized_copy_al_unchecked@PEBV?$basic_string@DU?$char_traits@D@std@@V?$allocator@D@2@@std@@PEAV12@V?$allocator@V?$basic_string@DU?$char_traits@D@std@@V?$allocator@D@2@@std@@@2@@std@@YAPEAV?$basic_string@DU?$char_traits@D@std@@V?$allocator@D@2@@0@PEBV10@0PEAV10@AEAU?$_Wrap_alloc@V?$allocator@V?$basic_string@DU?$char_traits@D@std@@V?$allocator@D@2@@std@@@std@@@0@@Z 0000000180016624     addon.obj
 0004:00000630       $pdata$1$??$_Uninitialized_copy_al_unchecked@PEBV?$basic_string@DU?$char_traits@D@std@@V?$allocator@D@2@@std@@PEAV12@V?$allocator@V?$basic_string@DU?$char_traits@D@std@@V?$allocator@D@2@@std@@@2@@std@@YAPEAV?$basic_string@DU?$char_traits@D@std@@V?$allocator@D@2@@0@PEBV10@0PEAV10@AEAU?$_Wrap_alloc@V?$allocator@V?$basic_string@DU?$char_traits@D@std@@V?$allocator@D@2@@std@@@std@@@0@@Z 0000000180016630     addon.obj
 0004:00000630       $pdata$1$??$_Uninitialized_copy_al_unchecked@PEAV?$basic_string@DU?$char_traits@D@std@@V?$allocator@D@2@@std@@PEAV12@V?$allocator@V?$basic_string@DU?$char_traits@D@std@@V?$allocator@D@2@@std@@@2@@std@@YAPEAV?$basic_string@DU?$char_traits@D@std@@V?$allocator@D@2@@0@PEAV10@00AEAU?$_Wrap_alloc@V?$allocator@V?$basic_string@DU?$char_traits@D@std@@V?$allocator@D@2@@std@@@std@@@0@@Z 0000000180016630     addon.obj
 0004:0000063c       $pdata$2$??$_Uninitialized_copy_al_unchecked@PEAV?$basic_string@DU?$char_traits@D@std@@V?$allocator@D@2@@std@@PEAV12@V?$allocator@V?$basic_string@DU?$char_traits@D@std@@V?$allocator@D@2@@std@@@2@@std@@YAPEAV?$basic_string@DU?$char_traits@D@std@@V?$allocator@D@2@@0@PEAV10@00AEAU?$_Wrap_alloc@V?$allocator@V?$basic_string@DU?$char_traits@D@std@@V?$allocator@D@2@@std@@@std@@@0@@Z 000000018001663c     addon.obj
 0004:0000063c       $pdata$2$??$_Uninitialized_copy_al_unchecked@PEBV?$basic_string@DU?$char_traits@D@std@@V?$allocator@D@2@@std@@PEAV12@V?$allocator@V?$basic_string@DU?$char_traits@D@std@@V?$allocator@D@2@@std@@@2@@std@@YAPEAV?$basic_string@DU?$char_traits@D@std@@V?$allocator@D@2@@0@PEBV10@0PEAV10@AEAU?$_Wrap_alloc@V?$allocator@V?$basic_string@DU?$char_traits@D@std@@V?$allocator@D@2@@std@@@std@@@0@@Z 000000018001663c     addon.obj
 0004:00000648       $pdata$??$_Insert_hint@AEAU?$pair@$$CBW4SIMCONNECT_DATATYPE@@H@std@@PEAU?$_Tree_node@U?$pair@$$CBW4SIMCONNECT_DATATYPE@@H@std@@PEAX@2@@?$_Tree@V?$_Tmap_traits@W4SIMCONNECT_DATATYPE@@HU?$less@W4SIMCONNECT_DATATYPE@@@std@@V?$allocator@U?$pair@$$CBW4SIMCONNECT_DATATYPE@@H@std@@@3@$0A@@std@@@std@@IEAA?AV?$_Tree_iterator@V?$_Tree_val@U?$_Tree_simple_types@U?$pair@$$CBW4SIMCONNECT_DATATYPE@@H@std@@@std@@@std@@@1@V?$_Tree_const_iterator@V?$_Tree_val@U?$_Tree_simple_types@U?$pair@$$CBW4SIMCONNECT_DATATYPE@@H@std@@@std@@@std@@@1@AEAU?$pair@$$CBW4SIMCONNECT_DATATYPE@@H@1@PEAU?$_Tree_node@U?$pair@$$CBW4SIMCONNECT_DATATYPE@@H@std@@PEAX@1@@Z 0000000180016648     addon.obj
 0004:00000654       $pdata$??$_Insert_hint@AEAU?$pair@$$CBW4SIMCONNECT_EXCEPTION@@PEBD@std@@PEAU?$_Tree_node@U?$pair@$$CBW4SIMCONNECT_EXCEPTION@@PEBD@std@@PEAX@2@@?$_Tree@V?$_Tmap_traits@W4SIMCONNECT_EXCEPTION@@PEBDU?$less@W4SIMCONNECT_EXCEPTION@@@std@@V?$allocator@U?$pair@$$CBW4SIMCONNECT_EXCEPTION@@PEBD@std@@@3@$0A@@std@@@std@@IEAA?AV?$_Tree_iterator@V?$_Tree_val@U?$_Tree_simple_types@U?$pair@$$CBW4SIMCONNECT_EXCEPTION@@PEBD@std@@@std@@@std@@@1@V?$_Tree_const_iterator@V?$_Tree_val@U?$_Tree_simple_types@U?$pair@$$CBW4SIMCONNECT_EXCEPTION@@PEBD@std@@@std@@@std@@@1@AEAU?$pair@$$CBW4SIMCONNECT_EXCEPTION@@PEBD@1@PEAU?$_Tree_node@U?$pair@$$CBW4SIMCONNECT_EXCEPTION@@PEBD@std@@PEAX@1@@Z 0000000180016654     addon.obj
 0004:00000660       $pdata$??$_Insert_hint@AEAU?$pair@$$CBHPEAVCallback@Nan@@@std@@PEAU?$_Tree_node@U?$pair@$$CBHPEAVCallback@Nan@@@std@@PEAX@2@@?$_Tree@V?$_Tmap_traits@HPEAVCallback@Nan@@U?$less@H@std@@V?$allocator@U?$pair@$$CBHPEAVCallback@Nan@@@std@@@4@$0A@@std@@@std@@IEAA?AV?$_Tree_iterator@V?$_Tree_val@U?$_Tree_simple_types@U?$pair@$$CBHPEAVCallback@Nan@@@std@@@std@@@std@@@1@V?$_Tree_const_iterator@V?$_Tree_val@U?$_Tree_simple_types@U?$pair@$$CBHPEAVCallback@Nan@@@std@@@std@@@std@@@1@AEAU?$pair@$$CBHPEAVCallback@Nan@@@1@PEAU?$_Tree_node@U?$pair@$$CBHPEAVCallback@Nan@@@std@@PEAX@1@@Z 0000000180016660     addon.obj
 0004:0000066c       $pdata$0$??$_Insert_hint@AEAU?$pair@$$CBHPEAVCallback@Nan@@@std@@PEAU?$_Tree_node@U?$pair@$$CBHPEAVCallback@Nan@@@std@@PEAX@2@@?$_Tree@V?$_Tmap_traits@HPEAVCallback@Nan@@U?$less@H@std@@V?$allocator@U?$pair@$$CBHPEAVCallback@Nan@@@std@@@4@$0A@@std@@@std@@IEAA?AV?$_Tree_iterator@V?$_Tree_val@U?$_Tree_simple_types@U?$pair@$$CBHPEAVCallback@Nan@@@std@@@std@@@std@@@1@V?$_Tree_const_iterator@V?$_Tree_val@U?$_Tree_simple_types@U?$pair@$$CBHPEAVCallback@Nan@@@std@@@std@@@std@@@1@AEAU?$pair@$$CBHPEAVCallback@Nan@@@1@PEAU?$_Tree_node@U?$pair@$$CBHPEAVCallback@Nan@@@std@@PEAX@1@@Z 000000018001666c     addon.obj
 0004:00000678       $pdata$2$??$_Insert_hint@AEAU?$pair@$$CBHPEAVCallback@Nan@@@std@@PEAU?$_Tree_node@U?$pair@$$CBHPEAVCallback@Nan@@@std@@PEAX@2@@?$_Tree@V?$_Tmap_traits@HPEAVCallback@Nan@@U?$less@H@std@@V?$allocator@U?$pair@$$CBHPEAVCallback@Nan@@@std@@@4@$0A@@std@@@std@@IEAA?AV?$_Tree_iterator@V?$_Tree_val@U?$_Tree_simple_types@U?$pair@$$CBHPEAVCallback@Nan@@@std@@@std@@@std@@@1@V?$_Tree_const_iterator@V?$_Tree_val@U?$_Tree_simple_types@U?$pair@$$CBHPEAVCallback@Nan@@@std@@@std@@@std@@@1@AEAU?$pair@$$CBHPEAVCallback@Nan@@@1@PEAU?$_Tree_node@U?$pair@$$CBHPEAVCallback@Nan@@@std@@PEAX@1@@Z 0000000180016678     addon.obj
 0004:00000684       $pdata$4$??$_Insert_hint@AEAU?$pair@$$CBHPEAVCallback@Nan@@@std@@PEAU?$_Tree_node@U?$pair@$$CBHPEAVCallback@Nan@@@std@@PEAX@2@@?$_Tree@V?$_Tmap_traits@HPEAVCallback@Nan@@U?$less@H@std@@V?$allocator@U?$pair@$$CBHPEAVCallback@Nan@@@std@@@4@$0A@@std@@@std@@IEAA?AV?$_Tree_iterator@V?$_Tree_val@U?$_Tree_simple_types@U?$pair@$$CBHPEAVCallback@Nan@@@std@@@std@@@std@@@1@V?$_Tree_const_iterator@V?$_Tree_val@U?$_Tree_simple_types@U?$pair@$$CBHPEAVCallback@Nan@@@std@@@std@@@std@@@1@AEAU?$pair@$$CBHPEAVCallback@Nan@@@1@PEAU?$_Tree_node@U?$pair@$$CBHPEAVCallback@Nan@@@std@@PEAX@1@@Z 0000000180016684     addon.obj
 0004:00000690       $pdata$6$??$_Insert_hint@AEAU?$pair@$$CBHPEAVCallback@Nan@@@std@@PEAU?$_Tree_node@U?$pair@$$CBHPEAVCallback@Nan@@@std@@PEAX@2@@?$_Tree@V?$_Tmap_traits@HPEAVCallback@Nan@@U?$less@H@std@@V?$allocator@U?$pair@$$CBHPEAVCallback@Nan@@@std@@@4@$0A@@std@@@std@@IEAA?AV?$_Tree_iterator@V?$_Tree_val@U?$_Tree_simple_types@U?$pair@$$CBHPEAVCallback@Nan@@@std@@@std@@@std@@@1@V?$_Tree_const_iterator@V?$_Tree_val@U?$_Tree_simple_types@U?$pair@$$CBHPEAVCallback@Nan@@@std@@@std@@@std@@@1@AEAU?$pair@$$CBHPEAVCallback@Nan@@@1@PEAU?$_Tree_node@U?$pair@$$CBHPEAVCallback@Nan@@@std@@PEAX@1@@Z 0000000180016690     addon.obj
 0004:0000069c       $pdata$8$??$_Insert_hint@AEAU?$pair@$$CBHPEAVCallback@Nan@@@std@@PEAU?$_Tree_node@U?$pair@$$CBHPEAVCallback@Nan@@@std@@PEAX@2@@?$_Tree@V?$_Tmap_traits@HPEAVCallback@Nan@@U?$less@H@std@@V?$allocator@U?$pair@$$CBHPEAVCallback@Nan@@@std@@@4@$0A@@std@@@std@@IEAA?AV?$_Tree_iterator@V?$_Tree_val@U?$_Tree_simple_types@U?$pair@$$CBHPEAVCallback@Nan@@@std@@@std@@@std@@@1@V?$_Tree_const_iterator@V?$_Tree_val@U?$_Tree_simple_types@U?$pair@$$CBHPEAVCallback@Nan@@@std@@@std@@@std@@@1@AEAU?$pair@$$CBHPEAVCallback@Nan@@@1@PEAU?$_Tree_node@U?$pair@$$CBHPEAVCallback@Nan@@@std@@PEAX@1@@Z 000000018001669c     addon.obj
 0004:000006a8       $pdata$??$_Insert_hint@AEAU?$pair@$$CBHUDataRequest@@@std@@PEAU?$_Tree_node@U?$pair@$$CBHUDataRequest@@@std@@PEAX@2@@?$_Tree@V?$_Tmap_traits@HUDataRequest@@U?$less@H@std@@V?$allocator@U?$pair@$$CBHUDataRequest@@@std@@@3@$0A@@std@@@std@@IEAA?AV?$_Tree_iterator@V?$_Tree_val@U?$_Tree_simple_types@U?$pair@$$CBHUDataRequest@@@std@@@std@@@std@@@1@V?$_Tree_const_iterator@V?$_Tree_val@U?$_Tree_simple_types@U?$pair@$$CBHUDataRequest@@@std@@@std@@@std@@@1@AEAU?$pair@$$CBHUDataRequest@@@1@PEAU?$_Tree_node@U?$pair@$$CBHUDataRequest@@@std@@PEAX@1@@Z 00000001800166a8     addon.obj
 0004:000006b4       $pdata$??$_Insert_at@AEAU?$pair@$$CBW4SIMCONNECT_DATATYPE@@H@std@@PEAU?$_Tree_node@U?$pair@$$CBW4SIMCONNECT_DATATYPE@@H@std@@PEAX@2@@?$_Tree@V?$_Tmap_traits@W4SIMCONNECT_DATATYPE@@HU?$less@W4SIMCONNECT_DATATYPE@@@std@@V?$allocator@U?$pair@$$CBW4SIMCONNECT_DATATYPE@@H@std@@@3@$0A@@std@@@std@@IEAA?AV?$_Tree_iterator@V?$_Tree_val@U?$_Tree_simple_types@U?$pair@$$CBW4SIMCONNECT_DATATYPE@@H@std@@@std@@@std@@@1@_NPEAU?$_Tree_node@U?$pair@$$CBW4SIMCONNECT_DATATYPE@@H@std@@PEAX@1@AEAU?$pair@$$CBW4SIMCONNECT_DATATYPE@@H@1@1@Z 00000001800166b4     addon.obj
 0004:000006c0       $pdata$??$_Insert_nohint@AEAU?$pair@$$CBW4SIMCONNECT_DATATYPE@@H@std@@PEAU?$_Tree_node@U?$pair@$$CBW4SIMCONNECT_DATATYPE@@H@std@@PEAX@2@@?$_Tree@V?$_Tmap_traits@W4SIMCONNECT_DATATYPE@@HU?$less@W4SIMCONNECT_DATATYPE@@@std@@V?$allocator@U?$pair@$$CBW4SIMCONNECT_DATATYPE@@H@std@@@3@$0A@@std@@@std@@IEAA?AU?$pair@V?$_Tree_iterator@V?$_Tree_val@U?$_Tree_simple_types@U?$pair@$$CBW4SIMCONNECT_DATATYPE@@H@std@@@std@@@std@@@std@@_N@1@_NAEAU?$pair@$$CBW4SIMCONNECT_DATATYPE@@H@1@PEAU?$_Tree_node@U?$pair@$$CBW4SIMCONNECT_DATATYPE@@H@std@@PEAX@1@@Z 00000001800166c0     addon.obj
 0004:000006cc       $pdata$??$_Insert_at@AEAU?$pair@$$CBW4SIMCONNECT_EXCEPTION@@PEBD@std@@PEAU?$_Tree_node@U?$pair@$$CBW4SIMCONNECT_EXCEPTION@@PEBD@std@@PEAX@2@@?$_Tree@V?$_Tmap_traits@W4SIMCONNECT_EXCEPTION@@PEBDU?$less@W4SIMCONNECT_EXCEPTION@@@std@@V?$allocator@U?$pair@$$CBW4SIMCONNECT_EXCEPTION@@PEBD@std@@@3@$0A@@std@@@std@@IEAA?AV?$_Tree_iterator@V?$_Tree_val@U?$_Tree_simple_types@U?$pair@$$CBW4SIMCONNECT_EXCEPTION@@PEBD@std@@@std@@@std@@@1@_NPEAU?$_Tree_node@U?$pair@$$CBW4SIMCONNECT_EXCEPTION@@PEBD@std@@PEAX@1@AEAU?$pair@$$CBW4SIMCONNECT_EXCEPTION@@PEBD@1@1@Z 00000001800166cc     addon.obj
 0004:000006d8       $pdata$??$_Insert_nohint@AEAU?$pair@$$CBW4SIMCONNECT_EXCEPTION@@PEBD@std@@PEAU?$_Tree_node@U?$pair@$$CBW4SIMCONNECT_EXCEPTION@@PEBD@std@@PEAX@2@@?$_Tree@V?$_Tmap_traits@W4SIMCONNECT_EXCEPTION@@PEBDU?$less@W4SIMCONNECT_EXCEPTION@@@std@@V?$allocator@U?$pair@$$CBW4SIMCONNECT_EXCEPTION@@PEBD@std@@@3@$0A@@std@@@std@@IEAA?AU?$pair@V?$_Tree_iterator@V?$_Tree_val@U?$_Tree_simple_types@U?$pair@$$CBW4SIMCONNECT_EXCEPTION@@PEBD@std@@@std@@@std@@@std@@_N@1@_NAEAU?$pair@$$CBW4SIMCONNECT_EXCEPTION@@PEBD@1@PEAU?$_Tree_node@U?$pair@$$CBW4SIMCONNECT_EXCEPTION@@PEBD@std@@PEAX@1@@Z 00000001800166d8     addon.obj
 0004:000006e4       $pdata$??$_Insert_at@AEAU?$pair@$$CBHPEAVCallback@Nan@@@std@@PEAU?$_Tree_node@U?$pair@$$CBHPEAVCallback@Nan@@@std@@PEAX@2@@?$_Tree@V?$_Tmap_traits@HPEAVCallback@Nan@@U?$less@H@std@@V?$allocator@U?$pair@$$CBHPEAVCallback@Nan@@@std@@@4@$0A@@std@@@std@@IEAA?AV?$_Tree_iterator@V?$_Tree_val@U?$_Tree_simple_types@U?$pair@$$CBHPEAVCallback@Nan@@@std@@@std@@@std@@@1@_NPEAU?$_Tree_node@U?$pair@$$CBHPEAVCallback@Nan@@@std@@PEAX@1@AEAU?$pair@$$CBHPEAVCallback@Nan@@@1@1@Z 00000001800166e4     addon.obj
 0004:000006f0       $pdata$??$_Insert_nohint@AEAU?$pair@$$CBHPEAVCallback@Nan@@@std@@PEAU?$_Tree_node@U?$pair@$$CBHPEAVCallback@Nan@@@std@@PEAX@2@@?$_Tree@V?$_Tmap_traits@HPEAVCallback@Nan@@U?$less@H@std@@V?$allocator@U?$pair@$$CBHPEAVCallback@Nan@@@std@@@4@$0A@@std@@@std@@IEAA?AU?$pair@V?$_Tree_iterator@V?$_Tree_val@U?$_Tree_simple_types@U?$pair@$$CBHPEAVCallback@Nan@@@std@@@std@@@std@@@std@@_N@1@_NAEAU?$pair@$$CBHPEAVCallback@Nan@@@1@PEAU?$_Tree_node@U?$pair@$$CBHPEAVCallback@Nan@@@std@@PEAX@1@@Z 00000001800166f0     addon.obj
 0004:000006fc       $pdata$??$_Insert_at@AEAU?$pair@$$CBHUDataRequest@@@std@@PEAU?$_Tree_node@U?$pair@$$CBHUDataRequest@@@std@@PEAX@2@@?$_Tree@V?$_Tmap_traits@HUDataRequest@@U?$less@H@std@@V?$allocator@U?$pair@$$CBHUDataRequest@@@std@@@3@$0A@@std@@@std@@IEAA?AV?$_Tree_iterator@V?$_Tree_val@U?$_Tree_simple_types@U?$pair@$$CBHUDataRequest@@@std@@@std@@@std@@@1@_NPEAU?$_Tree_node@U?$pair@$$CBHUDataRequest@@@std@@PEAX@1@AEAU?$pair@$$CBHUDataRequest@@@1@1@Z 00000001800166fc     addon.obj
 0004:00000708       $pdata$0$??$_Insert_at@AEAU?$pair@$$CBHUDataRequest@@@std@@PEAU?$_Tree_node@U?$pair@$$CBHUDataRequest@@@std@@PEAX@2@@?$_Tree@V?$_Tmap_traits@HUDataRequest@@U?$less@H@std@@V?$allocator@U?$pair@$$CBHUDataRequest@@@std@@@3@$0A@@std@@@std@@IEAA?AV?$_Tree_iterator@V?$_Tree_val@U?$_Tree_simple_types@U?$pair@$$CBHUDataRequest@@@std@@@std@@@std@@@1@_NPEAU?$_Tree_node@U?$pair@$$CBHUDataRequest@@@std@@PEAX@1@AEAU?$pair@$$CBHUDataRequest@@@1@1@Z 0000000180016708     addon.obj
 0004:00000714       $pdata$1$??$_Insert_at@AEAU?$pair@$$CBHUDataRequest@@@std@@PEAU?$_Tree_node@U?$pair@$$CBHUDataRequest@@@std@@PEAX@2@@?$_Tree@V?$_Tmap_traits@HUDataRequest@@U?$less@H@std@@V?$allocator@U?$pair@$$CBHUDataRequest@@@std@@@3@$0A@@std@@@std@@IEAA?AV?$_Tree_iterator@V?$_Tree_val@U?$_Tree_simple_types@U?$pair@$$CBHUDataRequest@@@std@@@std@@@std@@@1@_NPEAU?$_Tree_node@U?$pair@$$CBHUDataRequest@@@std@@PEAX@1@AEAU?$pair@$$CBHUDataRequest@@@1@1@Z 0000000180016714     addon.obj
 0004:00000720       $pdata$??$_Insert_nohint@AEAU?$pair@$$CBHUDataRequest@@@std@@PEAU?$_Tree_node@U?$pair@$$CBHUDataRequest@@@std@@PEAX@2@@?$_Tree@V?$_Tmap_traits@HUDataRequest@@U?$less@H@std@@V?$allocator@U?$pair@$$CBHUDataRequest@@@std@@@3@$0A@@std@@@std@@IEAA?AU?$pair@V?$_Tree_iterator@V?$_Tree_val@U?$_Tree_simple_types@U?$pair@$$CBHUDataRequest@@@std@@@std@@@std@@@std@@_N@1@_NAEAU?$pair@$$CBHUDataRequest@@@1@PEAU?$_Tree_node@U?$pair@$$CBHUDataRequest@@@std@@PEAX@1@@Z 0000000180016720     addon.obj
 0004:0000072c       $pdata$?load_exe_hook@@YAP6A_JXZIPEAUDelayLoadInfo@@@Z 000000018001672c     win_delay_load_hook.obj
 0004:00000744       $pdata$SimConnect_AddToDataDefinition 0000000180016744     SimConnect:SimConnectClient.obj
 0004:00000750       $pdata$SimConnect_CallDispatch 0000000180016750     SimConnect:SimConnectClient.obj
 0004:0000075c       $pdata$SimConnect_Close    000000018001675c     SimConnect:SimConnectClient.obj
 0004:00000768       $pdata$SimConnect_GetNextDispatch 0000000180016768     SimConnect:SimConnectClient.obj
 0004:00000774       $pdata$SimConnect_MapClientEventToSimEvent 0000000180016774     SimConnect:SimConnectClient.obj
 0004:00000780       $pdata$SimConnect_Open     0000000180016780     SimConnect:SimConnectClient.obj
 0004:0000078c       $pdata$0$SimConnect_Open   000000018001678c     SimConnect:SimConnectClient.obj
 0004:00000798       $pdata$2$SimConnect_Open   0000000180016798     SimConnect:SimConnectClient.obj
 0004:000007a4       $pdata$3$SimConnect_Open   00000001800167a4     SimConnect:SimConnectClient.obj
 0004:000007b0       $pdata$SimConnect_RequestDataOnSimObject 00000001800167b0     SimConnect:SimConnectClient.obj
 0004:000007bc       $pdata$SimConnect_RequestSystemState 00000001800167bc     SimConnect:SimConnectClient.obj
 0004:000007c8       $pdata$SimConnect_SetDataOnSimObject 00000001800167c8     SimConnect:SimConnectClient.obj
 0004:000007d4       $pdata$SimConnect_SubscribeToSystemEvent 00000001800167d4     SimConnect:SimConnectClient.obj
 0004:000007e0       $pdata$SimConnect_TransmitClientEvent 00000001800167e0     SimConnect:SimConnectClient.obj
 0004:000007ec       $pdata$??0ClientClient@@QEAA@W4CLIENTTYPE@CClient@@@Z 00000001800167ec     SimConnect:commClient.obj
 0004:000007f8       $pdata$??1?$TSmartPtr@VQueueItem@@@@QEAA@XZ 00000001800167f8     SimConnect:commClient.obj
 0004:00000804       $pdata$??1ClientClient@@UEAA@XZ 0000000180016804     SimConnect:commClient.obj
 0004:00000810       $pdata$??_GClientClient@@UEAAPEAXI@Z 0000000180016810     SimConnect:commClient.obj
 0004:0000081c       $pdata$??_GQueueItem@@MEAAPEAXI@Z 000000018001681c     SimConnect:commClient.obj
 0004:00000828       $pdata$?AddElement@?$CQueue@V?$TSmartPtr@VQueueItem@@@@@@QEAAHAEBV?$TSmartPtr@VQueueItem@@@@@Z 0000000180016828     SimConnect:commClient.obj
 0004:00000834       $pdata$?AddElement@?$CThreadSafeQueue@V?$TSmartPtr@VQueueItem@@@@@@QEAAHAEBV?$TSmartPtr@VQueueItem@@@@@Z 0000000180016834     SimConnect:commClient.obj
 0004:00000840       $pdata$?ClientPutInQueue@@YAXKKIPEAX@Z 0000000180016840     SimConnect:commClient.obj
 0004:0000084c       $pdata$?Close@ClientClient@@UEAAXW4CLIENTERROR@@K@Z 000000018001684c     SimConnect:commClient.obj
 0004:00000858       $pdata$?CommClient_Close@@YA?AW4CC_RESULT@@PEAX@Z 0000000180016858     SimConnect:commClient.obj
 0004:00000864       $pdata$?CommClient_GetReceive@@YA?AW4CC_RESULT@@PEAXPEAPEAUSIMCONNECT_RECV@@PEAK@Z 0000000180016864     SimConnect:commClient.obj
 0004:00000870       $pdata$2$?CommClient_GetReceive@@YA?AW4CC_RESULT@@PEAXPEAPEAUSIMCONNECT_RECV@@PEAK@Z 0000000180016870     SimConnect:commClient.obj
 0004:0000087c       $pdata$3$?CommClient_GetReceive@@YA?AW4CC_RESULT@@PEAXPEAPEAUSIMCONNECT_RECV@@PEAK@Z 000000018001687c     SimConnect:commClient.obj
 0004:00000888       $pdata$5$?CommClient_GetReceive@@YA?AW4CC_RESULT@@PEAXPEAPEAUSIMCONNECT_RECV@@PEAK@Z 0000000180016888     SimConnect:commClient.obj
 0004:00000894       $pdata$7$?CommClient_GetReceive@@YA?AW4CC_RESULT@@PEAXPEAPEAUSIMCONNECT_RECV@@PEAK@Z 0000000180016894     SimConnect:commClient.obj
 0004:000008a0       $pdata$8$?CommClient_GetReceive@@YA?AW4CC_RESULT@@PEAXPEAPEAUSIMCONNECT_RECV@@PEAK@Z 00000001800168a0     SimConnect:commClient.obj
 0004:000008ac       $pdata$?CommClient_Open@@YA?AW4CC_RESULT@@PEAPEAXK@Z 00000001800168ac     SimConnect:commClient.obj
 0004:000008b8       $pdata$?CommClient_ReceiveDispatch@@YA?AW4CC_RESULT@@PEAXP6AXPEAUSIMCONNECT_RECV@@K0@Z0@Z 00000001800168b8     SimConnect:commClient.obj
 0004:000008c4       $pdata$?CommClient_SendAbort@@YA?AW4CC_RESULT@@PEAXPEAUSIMCONNECT_SEND@@K@Z 00000001800168c4     SimConnect:commClient.obj
 0004:000008d0       $pdata$?CommClient_SendAllocate@@YA?AW4CC_RESULT@@PEAXPEAPEAUSIMCONNECT_SEND@@K@Z 00000001800168d0     SimConnect:commClient.obj
 0004:000008dc       $pdata$?CommClient_SendFlush@@YA?AW4CC_RESULT@@PEAX@Z 00000001800168dc     SimConnect:commClient.obj
 0004:000008e8       $pdata$?Connect@ClientClient@@QEAA_NHPEB_W0I_N@Z 00000001800168e8     SimConnect:commClient.obj
 0004:000008f4       $pdata$?DeleteAll@?$CQueue@V?$TSmartPtr@VQueueItem@@@@@@QEAAHXZ 00000001800168f4     SimConnect:commClient.obj
 0004:00000900       $pdata$0$?DeleteAll@?$CQueue@V?$TSmartPtr@VQueueItem@@@@@@QEAAHXZ 0000000180016900     SimConnect:commClient.obj
 0004:0000090c       $pdata$1$?DeleteAll@?$CQueue@V?$TSmartPtr@VQueueItem@@@@@@QEAAHXZ 000000018001690c     SimConnect:commClient.obj
 0004:00000918       $pdata$?ExtractElement@?$CQueue@V?$TSmartPtr@VQueueItem@@@@@@QEAAHAEAV?$TSmartPtr@VQueueItem@@@@@Z 0000000180016918     SimConnect:commClient.obj
 0004:00000924       $pdata$1$?ExtractElement@?$CQueue@V?$TSmartPtr@VQueueItem@@@@@@QEAAHAEAV?$TSmartPtr@VQueueItem@@@@@Z 0000000180016924     SimConnect:commClient.obj
 0004:00000930       $pdata$2$?ExtractElement@?$CQueue@V?$TSmartPtr@VQueueItem@@@@@@QEAAHAEAV?$TSmartPtr@VQueueItem@@@@@Z 0000000180016930     SimConnect:commClient.obj
 0004:0000093c       $pdata$?GetRegistryPort@@YA_N_NPEA_W@Z 000000018001693c     SimConnect:commClient.obj
 0004:00000948       $pdata$?New@QueueItem@@SA?AV?$TSmartPtr@VQueueItem@@@@PEBXIHK@Z 0000000180016948     SimConnect:commClient.obj
 0004:00000954       $pdata$?ProcessPacket@ClientClient@@UEAA?AW4PROCESSPACKET@CClient@@PEAVtagPacket@@@Z 0000000180016954     SimConnect:commClient.obj
 0004:00000960       $pdata$?Reset@ClientClient@@UEAAXXZ 0000000180016960     SimConnect:commClient.obj
 0004:0000096c       $pdata$?StringCbPrintfW@@YAJPEA_W_KPEB_WZZ 000000018001696c     SimConnect:commClient.obj
 0004:00000978       $pdata$0$?StringCbPrintfW@@YAJPEA_W_KPEB_WZZ 0000000180016978     SimConnect:commClient.obj
 0004:00000984       $pdata$1$?StringCbPrintfW@@YAJPEA_W_KPEB_WZZ 0000000180016984     SimConnect:commClient.obj
 0004:00000990       $pdata$2$?StringCbPrintfW@@YAJPEA_W_KPEB_WZZ 0000000180016990     SimConnect:commClient.obj
 0004:0000099c       $pdata$4$?StringCbPrintfW@@YAJPEA_W_KPEB_WZZ 000000018001699c     SimConnect:commClient.obj
 0004:000009a8       $pdata$5$?StringCbPrintfW@@YAJPEA_W_KPEB_WZZ 00000001800169a8     SimConnect:commClient.obj
 0004:000009b4       $pdata$?Unlink@ClientClient@@QEAAXXZ 00000001800169b4     SimConnect:commClient.obj
 0004:000009c0       $pdata$?WinSockStartup@@YA_NXZ 00000001800169c0     SimConnect:commClient.obj
 0004:000009cc       $pdata$?_Reallocate@?$vector@UCLIENT_INPROC_ALLOC@@V?$allocator@UCLIENT_INPROC_ALLOC@@@std@@@std@@IEAAX_K@Z 00000001800169cc     SimConnect:commClient.obj
 0004:000009d8       $pdata$?_Reserve@?$vector@UCLIENT_INPROC_ALLOC@@V?$allocator@UCLIENT_INPROC_ALLOC@@@std@@@std@@IEAAX_K@Z 00000001800169d8     SimConnect:commClient.obj
 0004:000009e4       $pdata$?allocate@?$allocator@UCLIENT_INPROC_ALLOC@@@std@@QEAAPEAUCLIENT_INPROC_ALLOC@@_K@Z 00000001800169e4     SimConnect:commClient.obj
 0004:000009f0       $pdata$?deallocate@?$allocator@UCLIENT_INPROC_ALLOC@@@std@@QEAAXPEAUCLIENT_INPROC_ALLOC@@_K@Z 00000001800169f0     SimConnect:commClient.obj
 0004:000009fc       $pdata$?push_back@?$vector@UCLIENT_INPROC_ALLOC@@V?$allocator@UCLIENT_INPROC_ALLOC@@@std@@@std@@QEAAXAEBUCLIENT_INPROC_ALLOC@@@Z 00000001800169fc     SimConnect:commClient.obj
 0004:00000a08       $pdata$?readConfigFile@@YAXPEA_WKAEAH00AEAIAEA_N@Z 0000000180016a08     SimConnect:commClient.obj
 0004:00000a14       $pdata$?validateConfigIndex@@YA?AW4CC_RESULT@@K@Z 0000000180016a14     SimConnect:commClient.obj
 0004:00000a20       $pdata$0$?validateConfigIndex@@YA?AW4CC_RESULT@@K@Z 0000000180016a20     SimConnect:commClient.obj
 0004:00000a2c       $pdata$1$?validateConfigIndex@@YA?AW4CC_RESULT@@K@Z 0000000180016a2c     SimConnect:commClient.obj
 0004:00000a38       $pdata$2$?validateConfigIndex@@YA?AW4CC_RESULT@@K@Z 0000000180016a38     SimConnect:commClient.obj
 0004:00000a44       $pdata$3$?validateConfigIndex@@YA?AW4CC_RESULT@@K@Z 0000000180016a44     SimConnect:commClient.obj
 0004:00000a50       $pdata$?validateConfigIndexFile@@YA?AW4CC_RESULT@@PEA_WK@Z 0000000180016a50     SimConnect:commClient.obj
 0004:00000a5c       $pdata$??0CClient@@QEAA@W4CLIENTTYPE@0@@Z 0000000180016a5c     SimConnect:client.obj
 0004:00000a68       $pdata$??1CClient@@UEAA@XZ 0000000180016a68     SimConnect:client.obj
 0004:00000a74       $pdata$??_GCClient@@UEAAPEAXI@Z 0000000180016a74     SimConnect:client.obj
 0004:00000a80       $pdata$?Close@CClient@@UEAAXW4CLIENTERROR@@K@Z 0000000180016a80     SimConnect:client.obj
 0004:00000a8c       $pdata$?CreateInvalidPacket@CClient@@QEAAXPEAVtagPacket@@@Z 0000000180016a8c     SimConnect:client.obj
 0004:00000a98       $pdata$?Deinit@CClient@@QEAAXXZ 0000000180016a98     SimConnect:client.obj
 0004:00000aa4       $pdata$?DoneIO@CClient@@SAXKKPEAU_OVERLAPPED@@@Z 0000000180016aa4     SimConnect:client.obj
 0004:00000ab0       $pdata$0$?DoneIO@CClient@@SAXKKPEAU_OVERLAPPED@@@Z 0000000180016ab0     SimConnect:client.obj
 0004:00000abc       $pdata$1$?DoneIO@CClient@@SAXKKPEAU_OVERLAPPED@@@Z 0000000180016abc     SimConnect:client.obj
 0004:00000ac8       $pdata$?Init@CClient@@QEAAX_NTSOCKETHANDLE@@HI0@Z 0000000180016ac8     SimConnect:client.obj
 0004:00000ad4       $pdata$?IsProtocolAvailable@CClient@@SA_N_N@Z 0000000180016ad4     SimConnect:client.obj
 0004:00000ae0       $pdata$?IssueNetRead@CClient@@QEAAXXZ 0000000180016ae0     SimConnect:client.obj
 0004:00000aec       $pdata$?Maintenance@CClient@@QEAA_NXZ 0000000180016aec     SimConnect:client.obj
 0004:00000af8       $pdata$?Read@CClient@@AEAA?AW4READRESULT@1@PEAVtagPacket@@@Z 0000000180016af8     SimConnect:client.obj
 0004:00000b04       $pdata$?Release@CClient@@QEAA_NXZ 0000000180016b04     SimConnect:client.obj
 0004:00000b10       $pdata$?Reset@CClient@@UEAAXXZ 0000000180016b10     SimConnect:client.obj
 0004:00000b1c       $pdata$?XNetWrite@CClient@@AEAA_N_N@Z 0000000180016b1c     SimConnect:client.obj
 0004:00000b28       $pdata$1$?XNetWrite@CClient@@AEAA_N_N@Z 0000000180016b28     SimConnect:client.obj
 0004:00000b34       $pdata$2$?XNetWrite@CClient@@AEAA_N_N@Z 0000000180016b34     SimConnect:client.obj
 0004:00000b40       $pdata$?XWrite@CClient@@QEAA_NAEBV?$TSmartPtr@VQueueItem@@@@@Z 0000000180016b40     SimConnect:client.obj
 0004:00000b58       $pdata$??2@YAPEAX_K@Z      0000000180016b58     MSVCRT:new_scalar.obj
 0004:00000b64       $pdata$__scrt_acquire_startup_lock 0000000180016b64     MSVCRT:utility.obj
 0004:00000b70       $pdata$__scrt_dllmain_after_initialize_c 0000000180016b70     MSVCRT:utility.obj
 0004:00000b7c       $pdata$__scrt_dllmain_before_initialize_c 0000000180016b7c     MSVCRT:utility.obj
 0004:00000b88       $pdata$__scrt_dllmain_crt_thread_attach 0000000180016b88     MSVCRT:utility.obj
 0004:00000b94       $pdata$__scrt_dllmain_crt_thread_detach 0000000180016b94     MSVCRT:utility.obj
 0004:00000ba0       $pdata$__scrt_dllmain_exception_filter 0000000180016ba0     MSVCRT:utility.obj
 0004:00000bac       $pdata$__scrt_dllmain_uninitialize_c 0000000180016bac     MSVCRT:utility.obj
 0004:00000bb8       $pdata$__scrt_dllmain_uninitialize_critical 0000000180016bb8     MSVCRT:utility.obj
 0004:00000bc4       $pdata$__scrt_initialize_crt 0000000180016bc4     MSVCRT:utility.obj
 0004:00000bd0       $pdata$__scrt_initialize_onexit_tables 0000000180016bd0     MSVCRT:utility.obj
 0004:00000bdc       $pdata$__scrt_is_nonwritable_in_current_image 0000000180016bdc     MSVCRT:utility.obj
 0004:00000be8       $pdata$__scrt_release_startup_lock 0000000180016be8     MSVCRT:utility.obj
 0004:00000bf4       $pdata$__scrt_uninitialize_crt 0000000180016bf4     MSVCRT:utility.obj
 0004:00000c00       $pdata$_onexit             0000000180016c00     MSVCRT:utility.obj
 0004:00000c0c       $pdata$atexit              0000000180016c0c     MSVCRT:utility.obj
 0004:00000c18       $pdata$?dllmain_crt_dispatch@@YAHQEAUHINSTANCE__@@KQEAX@Z 0000000180016c18     MSVCRT:dll_dllmain.obj
 0004:00000c24       $pdata$?dllmain_crt_process_attach@@YAHQEAUHINSTANCE__@@QEAX@Z 0000000180016c24     MSVCRT:dll_dllmain.obj
 0004:00000c30       $pdata$?dllmain_crt_process_detach@@YAH_N@Z 0000000180016c30     MSVCRT:dll_dllmain.obj
 0004:00000c3c       $pdata$?dllmain_dispatch@@YAHQEAUHINSTANCE__@@KQEAX@Z 0000000180016c3c     MSVCRT:dll_dllmain.obj
 0004:00000c48       $pdata$?dllmain_raw@@YAHQEAUHINSTANCE__@@KQEAX@Z 0000000180016c48     MSVCRT:dll_dllmain.obj
 0004:00000c54       $pdata$_DllMainCRTStartup  0000000180016c54     MSVCRT:dll_dllmain.obj
 0004:00000c60       $pdata$__GSHandlerCheck    0000000180016c60     MSVCRT:_gshandler_.obj
 0004:00000c6c       $pdata$__GSHandlerCheckCommon 0000000180016c6c     MSVCRT:_gshandler_.obj
 0004:00000c78       $pdata$__GSHandlerCheck_EH 0000000180016c78     MSVCRT:gshandlereh.obj
 0004:00000c90       $pdata$__raise_securityfailure 0000000180016c90     MSVCRT:gs_report.obj
 0004:00000c9c       $pdata$__report_gsfailure  0000000180016c9c     MSVCRT:gs_report.obj
 0004:00000ca8       $pdata$capture_previous_context 0000000180016ca8     MSVCRT:gs_report.obj
 0004:00000cb4       $pdata$??0bad_alloc@std@@QEAA@AEBV01@@Z 0000000180016cb4     MSVCRT:throw_bad_alloc.obj
 0004:00000cc0       $pdata$??0bad_array_new_length@std@@QEAA@AEBV01@@Z 0000000180016cc0     MSVCRT:throw_bad_alloc.obj
 0004:00000ccc       $pdata$??0exception@std@@QEAA@AEBV01@@Z 0000000180016ccc     MSVCRT:throw_bad_alloc.obj
 0004:00000cd8       $pdata$??_Gbad_array_new_length@std@@UEAAPEAXI@Z 0000000180016cd8     MSVCRT:throw_bad_alloc.obj
 0004:00000cd8       $pdata$??_Gbad_alloc@std@@UEAAPEAXI@Z 0000000180016cd8     MSVCRT:throw_bad_alloc.obj
 0004:00000cd8       $pdata$??_Gexception@std@@UEAAPEAXI@Z 0000000180016cd8     MSVCRT:throw_bad_alloc.obj
 0004:00000ce4       $pdata$?__scrt_throw_std_bad_alloc@@YAXXZ 0000000180016ce4     MSVCRT:throw_bad_alloc.obj
 0004:00000cf0       $pdata$?__scrt_throw_std_bad_array_new_length@@YAXXZ 0000000180016cf0     MSVCRT:throw_bad_alloc.obj
 0004:00000cfc       $pdata$__isa_available_init 0000000180016cfc     MSVCRT:_cpu_disp_.obj
 0004:00000d08       $pdata$__scrt_fastfail     0000000180016d08     MSVCRT:utility_desktop.obj
 0004:00000d14       $pdata$__security_init_cookie 0000000180016d14     MSVCRT:gs_support.obj
 0004:00000d20       $pdata$DllMain             0000000180016d20     MSVCRT:dll_dllmain_stub.obj
 0004:00000d2c       $pdata$__scrt_initialize_default_local_stdio_options 0000000180016d2c     MSVCRT:default_local_stdio_options.obj
 0004:00000d38       $pdata$_RTC_Initialize     0000000180016d38     MSVCRT:_initsect_.obj
 0004:00000d44       $pdata$_RTC_Terminate      0000000180016d44     MSVCRT:_initsect_.obj
 0004:00000d50       $pdata$??_Gtype_info@@UEAAPEAXI@Z 0000000180016d50     MSVCRT:std_type_info_static.obj
 0004:00000d5c       $pdata$?DloadAcquireSectionWriteAccess@@YAXXZ 0000000180016d5c     DelayImp:delayhlp.obj
 0004:00000d68       $pdata$?DloadGetSRWLockFunctionPointers@@YAEXZ 0000000180016d68     DelayImp:delayhlp.obj
 0004:00000d74       $pdata$?DloadMakePermanentImageCommit@@YAXPEAX_K@Z 0000000180016d74     DelayImp:delayhlp.obj
 0004:00000d80       $pdata$?DloadObtainSection@@YAPEAXPEAK0@Z 0000000180016d80     DelayImp:delayhlp.obj
 0004:00000d8c       $pdata$?DloadProtectSection@@YAXKPEAK@Z 0000000180016d8c     DelayImp:delayhlp.obj
 0004:00000d98       $pdata$?DloadReleaseSectionWriteAccess@@YAXXZ 0000000180016d98     DelayImp:delayhlp.obj
 0004:00000da4       $pdata$__delayLoadHelper2  0000000180016da4     DelayImp:delayhlp.obj
 0004:00000dbc       $pdata$?dtor$0@?0??CommClient_Open@@YA?AW4CC_RESULT@@PEAPEAXK@Z@4HA 0000000180016dbc     SimConnect:commClient.obj
 0004:00000dc8       $pdata$?dtor$1@?0??CommClient_Open@@YA?AW4CC_RESULT@@PEAPEAXK@Z@4HA 0000000180016dc8     SimConnect:commClient.obj
 0004:00000dd4       $pdata$?dtor$2@?0??CommClient_Open@@YA?AW4CC_RESULT@@PEAPEAXK@Z@4HA 0000000180016dd4     SimConnect:commClient.obj
 0004:00000de0       $pdata$?dtor$3@?0??CommClient_Open@@YA?AW4CC_RESULT@@PEAPEAXK@Z@4HA 0000000180016de0     SimConnect:commClient.obj
 0004:00000dec       $pdata$?catch$48@?0??_Reallocate@?$vector@UCLIENT_INPROC_ALLOC@@V?$allocator@UCLIENT_INPROC_ALLOC@@@std@@@std@@IEAAX_K@Z@4HA 0000000180016dec     SimConnect:commClient.obj
 0004:00000df8       $pdata$__scrt_is_nonwritable_in_current_image$filt$0 0000000180016df8     MSVCRT:utility.obj
 0004:00000e04       $pdata$?fin$0@?0??dllmain_crt_process_attach@@YAHQEAUHINSTANCE__@@QEAX@Z@4HA 0000000180016e04     MSVCRT:dll_dllmain.obj
 0004:00000e10       $pdata$?fin$0@?0??dllmain_crt_process_detach@@YAH_N@Z@4HA 0000000180016e10     MSVCRT:dll_dllmain.obj
 0004:00000e1c       $pdata$?filt$0@?0??dllmain_dispatch@@YAHQEAUHINSTANCE__@@KQEAX@Z@4HA 0000000180016e1c     MSVCRT:dll_dllmain.obj
 0004:00000e28       $pdata$??__FexceptionNames@@YAXXZ 0000000180016e28     addon.obj
 0004:00000e34       $pdata$??__FsizeMap@@YAXXZ 0000000180016e34     addon.obj
 0004:00000e40       $pdata$??__FdataRequests@@YAXXZ 0000000180016e40     addon.obj
 0004:00000e4c       $pdata$??__FsystemEventCallbacks@@YAXXZ 0000000180016e4c     addon.obj
 0004:00000e58       $pdata$??__FsystemStateCallbacks@@YAXXZ 0000000180016e58     addon.obj
 0005:00000000       __guard_fids_?dllmain_crt_process_attach@@YAHQEAUHINSTANCE__@@QEAX@Z 0000000180017000     MSVCRT:dll_dllmain.obj
 0005:00000008       __guard_fids_?dllmain_dispatch@@YAHQEAUHINSTANCE__@@KQEAX@Z 0000000180017008     MSVCRT:dll_dllmain.obj
 0005:0000000c       __guard_fids__             000000018001700c     MSVCRT:throw_bad_alloc.obj
 0005:00000014       __guard_fids__             0000000180017014     MSVCRT:throw_bad_alloc.obj
 0005:0000001c       __guard_fids__             000000018001701c     MSVCRT:throw_bad_alloc.obj
 0005:00000024       __guard_fids__             0000000180017024     MSVCRT:std_type_info_static.obj
 0005:00000028       __guard_fids__             0000000180017028     MSVCRT:guard_support.obj
 0006:00000060       $R000000                   0000000180018060     * linker generated manifest res *

 Exports

  ordinal    name

        1    _register_addon_
